
========================================================================

** ELF Header Information

    File Name: .\obj\APROM_Bootloader.axf

    Machine class: ELFCLASS32 (32-bit)
    Data encoding: ELFDATA2LSB (Little endian)
    Header version: EV_CURRENT (Current version)
    Operating System ABI: none
    ABI Version: 0
    File Type: ET_EXEC (Executable) (2)
    Machine: EM_ARM (ARM)

    Image Entry point: 0x000000f1
    Flags: EF_ARM_HASENTRY + EF_ARM_ABI_FLOAT_SOFT (0x05000202)

    ARM ELF revision: 5 (ABI version 2)

    Conforms to Soft float procedure-call standard

    Built with
    Component: ARM Compiler 5.06 update 6 (build 750) Tool: armasm [4d35ec]
    Component: ARM Compiler 5.06 update 6 (build 750) Tool: armlink [4d35ed]

    Header size: 52 bytes (0x34)
    Program header entry size: 32 bytes (0x20)
    Section header entry size: 40 bytes (0x28)

    Program header entries: 2
    Section header entries: 17

    Program header offset: 557596 (0x0008821c)
    Section header offset: 557660 (0x0008825c)

    Section header string table index: 16

========================================================================

** Program header #0 (PT_LOAD) [PF_X + PF_W + PF_R + PF_ARM_ENTRY]
    Size : 10836 bytes (8148 bytes in file)
    Virtual address: 0x00000000 (Alignment 8)


====================================

** Program header #1 (PT_LOAD) [PF_W + PF_R]
    Size : 4 bytes (0 bytes in file)
    Virtual address: 0x20001ffc (Alignment 4)


========================================================================

** Section #1 'APROM_Bootloader.bin' (SHT_PROGBITS) [SHF_ALLOC + SHF_EXECINSTR]
    Size   : 8028 bytes (alignment 4)
    Address: 0x00000000

    $d.realdata
    RESET
    __Vectors
        0x00000000:    20000af8    ...     DCD    536873720
        0x00000004:    000000f1    ....    DCD    241
        0x00000008:    00000111    ....    DCD    273
        0x0000000c:    000000d5    ....    DCD    213
        0x00000010:    00000000    ....    DCD    0
        0x00000014:    00000000    ....    DCD    0
        0x00000018:    00000000    ....    DCD    0
        0x0000001c:    00000000    ....    DCD    0
        0x00000020:    00000000    ....    DCD    0
        0x00000024:    00000000    ....    DCD    0
        0x00000028:    00000000    ....    DCD    0
        0x0000002c:    00000115    ....    DCD    277
        0x00000030:    00000000    ....    DCD    0
        0x00000034:    00000000    ....    DCD    0
        0x00000038:    00000117    ....    DCD    279
        0x0000003c:    00000d5d    ]...    DCD    3421
        0x00000040:    0000011b    ....    DCD    283
        0x00000044:    0000011b    ....    DCD    283
        0x00000048:    0000011b    ....    DCD    283
        0x0000004c:    0000011b    ....    DCD    283
        0x00000050:    0000011b    ....    DCD    283
        0x00000054:    0000011b    ....    DCD    283
        0x00000058:    0000011b    ....    DCD    283
        0x0000005c:    0000011b    ....    DCD    283
        0x00000060:    0000011b    ....    DCD    283
        0x00000064:    00000f05    ....    DCD    3845
        0x00000068:    0000011b    ....    DCD    283
        0x0000006c:    0000011b    ....    DCD    283
        0x00000070:    00000f25    %...    DCD    3877
        0x00000074:    00000f71    q...    DCD    3953
        0x00000078:    0000011b    ....    DCD    283
        0x0000007c:    0000011b    ....    DCD    283
        0x00000080:    0000011b    ....    DCD    283
        0x00000084:    0000011b    ....    DCD    283
        0x00000088:    0000011b    ....    DCD    283
        0x0000008c:    0000011b    ....    DCD    283
        0x00000090:    0000011b    ....    DCD    283
        0x00000094:    0000011b    ....    DCD    283
        0x00000098:    0000011b    ....    DCD    283
        0x0000009c:    0000011b    ....    DCD    283
        0x000000a0:    0000011b    ....    DCD    283
        0x000000a4:    0000011b    ....    DCD    283
        0x000000a8:    0000011b    ....    DCD    283
        0x000000ac:    0000011b    ....    DCD    283
        0x000000b0:    0000011b    ....    DCD    283
        0x000000b4:    0000011b    ....    DCD    283
        0x000000b8:    0000011b    ....    DCD    283
        0x000000bc:    0000011b    ....    DCD    283
    $t
    .ARM.Collect$$$$00000000
    .ARM.Collect$$$$00000001
    __main
    _main_stk
        0x000000c0:    4803        .H      LDR      r0,__lit__00000000 ; [0xd0] = 0x20000af8
        0x000000c2:    4685        .F      MOV      sp,r0
    .ARM.Collect$$$$00000004
    _main_scatterload
        0x000000c4:    f000f8a4    ....    BL       __scatterload ; 0x210
    .ARM.Collect$$$$00000008
    .ARM.Collect$$$$0000000A
    .ARM.Collect$$$$0000000B
    __main_after_scatterload
    _main_clock
    _main_cpp_init
    _main_init
        0x000000c8:    4800        .H      LDR      r0,[pc,#0] ; [0xcc] = 0x1a11
        0x000000ca:    4700        .G      BX       r0
    $d
        0x000000cc:    00001a11    ....    DCD    6673
    .ARM.Collect$$$$00002712
    __lit__00000000
    .ARM.Collect$$$$0000000D
    .ARM.Collect$$$$0000000F
    __rt_final_cpp
    __rt_final_exit
        0x000000d0:    20000af8    ...     DCD    536873720
    $t
    .emb_text
    HardFault_Handler
        0x000000d4:    2004        .       MOVS     r0,#4
        0x000000d6:    4671        qF      MOV      r1,lr
        0x000000d8:    4208        .B      TST      r0,r1
        0x000000da:    d002        ..      BEQ      0xe2 ; HardFault_Handler + 14
        0x000000dc:    f3ef8009    ....    MRS      r0,PSP
        0x000000e0:    e001        ..      B        0xe6 ; HardFault_Handler + 18
        0x000000e2:    f3ef8008    ....    MRS      r0,MSP
        0x000000e6:    4671        qF      MOV      r1,lr
        0x000000e8:    4a00        .J      LDR      r2,[pc,#0] ; [0xec] = 0x8c9
        0x000000ea:    4710        .G      BX       r2
    $d
        0x000000ec:    000008c9    ....    DCD    2249
    $t
    .text
    Reset_Handler
        0x000000f0:    480a        .H      LDR      r0,[pc,#40] ; [0x11c] = 0x50000100
        0x000000f2:    490b        .I      LDR      r1,[pc,#44] ; [0x120] = 0x59
        0x000000f4:    6001        .`      STR      r1,[r0,#0]
        0x000000f6:    490b        .I      LDR      r1,[pc,#44] ; [0x124] = 0x16
        0x000000f8:    6001        .`      STR      r1,[r0,#0]
        0x000000fa:    490b        .I      LDR      r1,[pc,#44] ; [0x128] = 0x88
        0x000000fc:    6001        .`      STR      r1,[r0,#0]
        0x000000fe:    4a0b        .J      LDR      r2,[pc,#44] ; [0x12c] = 0x50000024
        0x00000100:    490b        .I      LDR      r1,[pc,#44] ; [0x130] = 0x5aa5
        0x00000102:    6011        .`      STR      r1,[r2,#0]
        0x00000104:    2100        .!      MOVS     r1,#0
        0x00000106:    6001        .`      STR      r1,[r0,#0]
        0x00000108:    480a        .H      LDR      r0,[pc,#40] ; [0x134] = 0xe31
        0x0000010a:    4780        .G      BLX      r0
        0x0000010c:    480a        .H      LDR      r0,[pc,#40] ; [0x138] = 0xc1
        0x0000010e:    4700        .G      BX       r0
    NMI_Handler
        0x00000110:    e7fe        ..      B        NMI_Handler ; 0x110
        0x00000112:    e7fe        ..      B        0x112 ; NMI_Handler + 2
    SVC_Handler
        0x00000114:    e7fe        ..      B        SVC_Handler ; 0x114
    PendSV_Handler
        0x00000116:    e7fe        ..      B        PendSV_Handler ; 0x116
        0x00000118:    e7fe        ..      B        0x118 ; PendSV_Handler + 2
    Default_Handler
    ADC_IRQHandler
    BOD_IRQHandler
    BPWM0_IRQHandler
    BPWM1_IRQHandler
    BRAKE0_IRQHandler
    BRAKE1_IRQHandler
    CAN0_IRQHandler
    CAN1_IRQHandler
    CKD_IRQHandler
    EINT0_IRQHandler
    EINT1_IRQHandler
    GPAB_IRQHandler
    GPCDEF_IRQHandler
    I2C0_IRQHandler
    I2C1_IRQHandler
    PWM0_IRQHandler
    PWM1_IRQHandler
    PWRWU_IRQHandler
    RTC_IRQHandler
    SPI0_IRQHandler
    TMR0_IRQHandler
    TMR2_IRQHandler
    TMR3_IRQHandler
    UART3_IRQHandler
    UART4_IRQHandler
    UART5_IRQHandler
    WDT_IRQHandler
        0x0000011a:    e7fe        ..      B        Default_Handler ; 0x11a
    $d
        0x0000011c:    50000100    ...P    DCD    1342177536
        0x00000120:    00000059    Y...    DCD    89
        0x00000124:    00000016    ....    DCD    22
        0x00000128:    00000088    ....    DCD    136
        0x0000012c:    50000024    $..P    DCD    1342177316
        0x00000130:    00005aa5    .Z..    DCD    23205
        0x00000134:    00000e31    1...    DCD    3633
        0x00000138:    000000c1    ....    DCD    193
    $t
    .text
    __aeabi_uidiv
    __aeabi_uidivmod
        0x0000013c:    b530        0.      PUSH     {r4,r5,lr}
        0x0000013e:    460b        .F      MOV      r3,r1
        0x00000140:    4601        .F      MOV      r1,r0
        0x00000142:    2000        .       MOVS     r0,#0
        0x00000144:    2220         "      MOVS     r2,#0x20
        0x00000146:    2401        .$      MOVS     r4,#1
        0x00000148:    e009        ..      B        0x15e ; __aeabi_uidiv + 34
        0x0000014a:    460d        .F      MOV      r5,r1
        0x0000014c:    40d5        .@      LSRS     r5,r5,r2
        0x0000014e:    429d        .B      CMP      r5,r3
        0x00000150:    d305        ..      BCC      0x15e ; __aeabi_uidiv + 34
        0x00000152:    461d        .F      MOV      r5,r3
        0x00000154:    4095        .@      LSLS     r5,r5,r2
        0x00000156:    1b49        I.      SUBS     r1,r1,r5
        0x00000158:    4625        %F      MOV      r5,r4
        0x0000015a:    4095        .@      LSLS     r5,r5,r2
        0x0000015c:    1940        @.      ADDS     r0,r0,r5
        0x0000015e:    4615        .F      MOV      r5,r2
        0x00000160:    1e52        R.      SUBS     r2,r2,#1
        0x00000162:    2d00        .-      CMP      r5,#0
        0x00000164:    dcf1        ..      BGT      0x14a ; __aeabi_uidiv + 14
        0x00000166:    bd30        0.      POP      {r4,r5,pc}
    .text
    __aeabi_memcpy
    __aeabi_memcpy4
    __aeabi_memcpy8
        0x00000168:    4603        .F      MOV      r3,r0
        0x0000016a:    430b        .C      ORRS     r3,r3,r1
        0x0000016c:    079b        ..      LSLS     r3,r3,#30
        0x0000016e:    d003        ..      BEQ      0x178 ; __aeabi_memcpy + 16
        0x00000170:    e009        ..      B        0x186 ; __aeabi_memcpy + 30
        0x00000172:    c908        ..      LDM      r1!,{r3}
        0x00000174:    1f12        ..      SUBS     r2,r2,#4
        0x00000176:    c008        ..      STM      r0!,{r3}
        0x00000178:    2a04        .*      CMP      r2,#4
        0x0000017a:    d2fa        ..      BCS      0x172 ; __aeabi_memcpy + 10
        0x0000017c:    e003        ..      B        0x186 ; __aeabi_memcpy + 30
        0x0000017e:    780b        .x      LDRB     r3,[r1,#0]
        0x00000180:    7003        .p      STRB     r3,[r0,#0]
        0x00000182:    1c40        @.      ADDS     r0,r0,#1
        0x00000184:    1c49        I.      ADDS     r1,r1,#1
        0x00000186:    1e52        R.      SUBS     r2,r2,#1
        0x00000188:    d2f9        ..      BCS      0x17e ; __aeabi_memcpy + 22
        0x0000018a:    4770        pG      BX       lr
    .text
    __aeabi_memset
    __aeabi_memset4
    __aeabi_memset8
        0x0000018c:    b2d2        ..      UXTB     r2,r2
        0x0000018e:    e001        ..      B        0x194 ; __aeabi_memset + 8
        0x00000190:    7002        .p      STRB     r2,[r0,#0]
        0x00000192:    1c40        @.      ADDS     r0,r0,#1
        0x00000194:    1e49        I.      SUBS     r1,r1,#1
        0x00000196:    d2fb        ..      BCS      0x190 ; __aeabi_memset + 4
        0x00000198:    4770        pG      BX       lr
    __aeabi_memclr
    __aeabi_memclr4
    __aeabi_memclr8
        0x0000019a:    2200        ."      MOVS     r2,#0
        0x0000019c:    e7f6        ..      B        __aeabi_memset ; 0x18c
    _memset$wrapper
        0x0000019e:    b510        ..      PUSH     {r4,lr}
        0x000001a0:    4613        .F      MOV      r3,r2
        0x000001a2:    460a        .F      MOV      r2,r1
        0x000001a4:    4604        .F      MOV      r4,r0
        0x000001a6:    4619        .F      MOV      r1,r3
        0x000001a8:    f7fffff0    ....    BL       __aeabi_memset ; 0x18c
        0x000001ac:    4620         F      MOV      r0,r4
        0x000001ae:    bd10        ..      POP      {r4,pc}
    .text
    __aeabi_uldivmod
        0x000001b0:    b5f0        ..      PUSH     {r4-r7,lr}
        0x000001b2:    b41f        ..      PUSH     {r0-r4}
        0x000001b4:    4606        .F      MOV      r6,r0
        0x000001b6:    2000        .       MOVS     r0,#0
        0x000001b8:    b082        ..      SUB      sp,sp,#8
        0x000001ba:    4605        .F      MOV      r5,r0
        0x000001bc:    2440        @$      MOVS     r4,#0x40
        0x000001be:    9101        ..      STR      r1,[sp,#4]
        0x000001c0:    9000        ..      STR      r0,[sp,#0]
        0x000001c2:    e01b        ..      B        0x1fc ; __aeabi_uldivmod + 76
        0x000001c4:    9901        ..      LDR      r1,[sp,#4]
        0x000001c6:    4622        "F      MOV      r2,r4
        0x000001c8:    460f        .F      MOV      r7,r1
        0x000001ca:    4630        0F      MOV      r0,r6
        0x000001cc:    f000f842    ..B.    BL       __aeabi_llsr ; 0x254
        0x000001d0:    9a04        ..      LDR      r2,[sp,#0x10]
        0x000001d2:    9b05        ..      LDR      r3,[sp,#0x14]
        0x000001d4:    1a80        ..      SUBS     r0,r0,r2
        0x000001d6:    4199        .A      SBCS     r1,r1,r3
        0x000001d8:    d310        ..      BCC      0x1fc ; __aeabi_uldivmod + 76
        0x000001da:    4610        .F      MOV      r0,r2
        0x000001dc:    4619        .F      MOV      r1,r3
        0x000001de:    4622        "F      MOV      r2,r4
        0x000001e0:    f000f828    ..(.    BL       __aeabi_llsl ; 0x234
        0x000001e4:    1a36        6.      SUBS     r6,r6,r0
        0x000001e6:    418f        .A      SBCS     r7,r7,r1
        0x000001e8:    9701        ..      STR      r7,[sp,#4]
        0x000001ea:    4622        "F      MOV      r2,r4
        0x000001ec:    2001        .       MOVS     r0,#1
        0x000001ee:    2100        .!      MOVS     r1,#0
        0x000001f0:    9f00        ..      LDR      r7,[sp,#0]
        0x000001f2:    f000f81f    ....    BL       __aeabi_llsl ; 0x234
        0x000001f6:    1838        8.      ADDS     r0,r7,r0
        0x000001f8:    414d        MA      ADCS     r5,r5,r1
        0x000001fa:    9000        ..      STR      r0,[sp,#0]
        0x000001fc:    4620         F      MOV      r0,r4
        0x000001fe:    1e64        d.      SUBS     r4,r4,#1
        0x00000200:    2800        .(      CMP      r0,#0
        0x00000202:    dcdf        ..      BGT      0x1c4 ; __aeabi_uldivmod + 20
        0x00000204:    9b01        ..      LDR      r3,[sp,#4]
        0x00000206:    9800        ..      LDR      r0,[sp,#0]
        0x00000208:    4629        )F      MOV      r1,r5
        0x0000020a:    4632        2F      MOV      r2,r6
        0x0000020c:    b007        ..      ADD      sp,sp,#0x1c
        0x0000020e:    bdf0        ..      POP      {r4-r7,pc}
    .text
    __scatterload
    __scatterload_rt2
        0x00000210:    4c06        .L      LDR      r4,[pc,#24] ; [0x22c] = 0x1f3c
        0x00000212:    2501        .%      MOVS     r5,#1
        0x00000214:    4e06        .N      LDR      r6,[pc,#24] ; [0x230] = 0x1f5c
        0x00000216:    e005        ..      B        0x224 ; __scatterload + 20
        0x00000218:    68e3        .h      LDR      r3,[r4,#0xc]
        0x0000021a:    cc07        ..      LDM      r4!,{r0-r2}
        0x0000021c:    432b        +C      ORRS     r3,r3,r5
        0x0000021e:    3c0c        .<      SUBS     r4,r4,#0xc
        0x00000220:    4798        .G      BLX      r3
        0x00000222:    3410        .4      ADDS     r4,r4,#0x10
        0x00000224:    42b4        .B      CMP      r4,r6
        0x00000226:    d3f7        ..      BCC      0x218 ; __scatterload + 8
        0x00000228:    f7ffff4e    ..N.    BL       __main_after_scatterload ; 0xc8
    $d
        0x0000022c:    00001f3c    <...    DCD    7996
        0x00000230:    00001f5c    \...    DCD    8028
    $t
    .text
    __aeabi_llsl
    _ll_shift_l
        0x00000234:    b510        ..      PUSH     {r4,lr}
        0x00000236:    2a20         *      CMP      r2,#0x20
        0x00000238:    db04        ..      BLT      0x244 ; __aeabi_llsl + 16
        0x0000023a:    4601        .F      MOV      r1,r0
        0x0000023c:    3a20         :      SUBS     r2,r2,#0x20
        0x0000023e:    4091        .@      LSLS     r1,r1,r2
        0x00000240:    2000        .       MOVS     r0,#0
        0x00000242:    bd10        ..      POP      {r4,pc}
        0x00000244:    4091        .@      LSLS     r1,r1,r2
        0x00000246:    2320         #      MOVS     r3,#0x20
        0x00000248:    1a9c        ..      SUBS     r4,r3,r2
        0x0000024a:    4603        .F      MOV      r3,r0
        0x0000024c:    40e3        .@      LSRS     r3,r3,r4
        0x0000024e:    4319        .C      ORRS     r1,r1,r3
        0x00000250:    4090        .@      LSLS     r0,r0,r2
        0x00000252:    bd10        ..      POP      {r4,pc}
    .text
    __aeabi_llsr
    _ll_ushift_r
        0x00000254:    b510        ..      PUSH     {r4,lr}
        0x00000256:    2a20         *      CMP      r2,#0x20
        0x00000258:    db04        ..      BLT      0x264 ; __aeabi_llsr + 16
        0x0000025a:    4608        .F      MOV      r0,r1
        0x0000025c:    3a20         :      SUBS     r2,r2,#0x20
        0x0000025e:    40d0        .@      LSRS     r0,r0,r2
        0x00000260:    2100        .!      MOVS     r1,#0
        0x00000262:    bd10        ..      POP      {r4,pc}
        0x00000264:    460b        .F      MOV      r3,r1
        0x00000266:    40d3        .@      LSRS     r3,r3,r2
        0x00000268:    40d0        .@      LSRS     r0,r0,r2
        0x0000026a:    2420         $      MOVS     r4,#0x20
        0x0000026c:    1aa2        ..      SUBS     r2,r4,r2
        0x0000026e:    4091        .@      LSLS     r1,r1,r2
        0x00000270:    4308        .C      ORRS     r0,r0,r1
        0x00000272:    4619        .F      MOV      r1,r3
        0x00000274:    bd10        ..      POP      {r4,pc}
        0x00000276:    0000        ..      MOVS     r0,r0
    i.CLK_EnableModuleClock
    CLK_EnableModuleClock
        0x00000278:    b51f        ..      PUSH     {r0-r4,lr}
        0x0000027a:    4909        .I      LDR      r1,[pc,#36] ; [0x2a0] = 0x1eac
        0x0000027c:    c91e        ..      LDM      r1,{r1-r4}
        0x0000027e:    9403        ..      STR      r4,[sp,#0xc]
        0x00000280:    466c        lF      MOV      r4,sp
        0x00000282:    c40e        ..      STM      r4!,{r1-r3}
        0x00000284:    0f81        ..      LSRS     r1,r0,#30
        0x00000286:    008a        ..      LSLS     r2,r1,#2
        0x00000288:    4669        iF      MOV      r1,sp
        0x0000028a:    588a        .X      LDR      r2,[r1,r2]
        0x0000028c:    4905        .I      LDR      r1,[pc,#20] ; [0x2a4] = 0x50000200
        0x0000028e:    1851        Q.      ADDS     r1,r2,r1
        0x00000290:    684a        Jh      LDR      r2,[r1,#4]
        0x00000292:    06c3        ..      LSLS     r3,r0,#27
        0x00000294:    0edb        ..      LSRS     r3,r3,#27
        0x00000296:    2001        .       MOVS     r0,#1
        0x00000298:    4098        .@      LSLS     r0,r0,r3
        0x0000029a:    4302        .C      ORRS     r2,r2,r0
        0x0000029c:    604a        J`      STR      r2,[r1,#4]
        0x0000029e:    bd1f        ..      POP      {r0-r4,pc}
    $d
        0x000002a0:    00001eac    ....    DCD    7852
        0x000002a4:    50000200    ...P    DCD    1342177792
    $t
    i.CLK_EnablePLL
    CLK_EnablePLL
        0x000002a8:    b5f0        ..      PUSH     {r4-r7,lr}
        0x000002aa:    0007        ..      MOVS     r7,r0
        0x000002ac:    460c        .F      MOV      r4,r1
        0x000002ae:    4856        VH      LDR      r0,[pc,#344] ; [0x408] = 0x50000200
        0x000002b0:    b085        ..      SUB      sp,sp,#0x14
        0x000002b2:    4954        TI      LDR      r1,[pc,#336] ; [0x404] = 0x10000
        0x000002b4:    6201        .b      STR      r1,[r0,#0x20]
        0x000002b6:    4e55        UN      LDR      r6,[pc,#340] ; [0x40c] = 0xb71b00
        0x000002b8:    6801        .h      LDR      r1,[r0,#0]
        0x000002ba:    d013        ..      BEQ      0x2e4 ; CLK_EnablePLL + 60
        0x000002bc:    2204        ."      MOVS     r2,#4
        0x000002be:    4311        .C      ORRS     r1,r1,r2
        0x000002c0:    6001        .`      STR      r1,[r0,#0]
        0x000002c2:    2010        .       MOVS     r0,#0x10
        0x000002c4:    f000f9a4    ....    BL       CLK_WaitClockReady ; 0x610
        0x000002c8:    2001        .       MOVS     r0,#1
        0x000002ca:    04c0        ..      LSLS     r0,r0,#19
        0x000002cc:    9002        ..      STR      r0,[sp,#8]
        0x000002ce:    4850        PH      LDR      r0,[pc,#320] ; [0x410] = 0x1518000
        0x000002d0:    2504        .%      MOVS     r5,#4
        0x000002d2:    9003        ..      STR      r0,[sp,#0xc]
        0x000002d4:    484f        OH      LDR      r0,[pc,#316] ; [0x414] = 0xfa0a1eff
        0x000002d6:    4950        PI      LDR      r1,[pc,#320] ; [0x418] = 0x5f5e0ff
        0x000002d8:    1820         .      ADDS     r0,r4,r0
        0x000002da:    4288        .B      CMP      r0,r1
        0x000002dc:    d80d        ..      BHI      0x2fa ; CLK_EnablePLL + 82
        0x000002de:    2000        .       MOVS     r0,#0
        0x000002e0:    9004        ..      STR      r0,[sp,#0x10]
        0x000002e2:    e01c        ..      B        0x31e ; CLK_EnablePLL + 118
        0x000002e4:    2201        ."      MOVS     r2,#1
        0x000002e6:    4311        .C      ORRS     r1,r1,r2
        0x000002e8:    6001        .`      STR      r1,[r0,#0]
        0x000002ea:    4610        .F      MOV      r0,r2
        0x000002ec:    f000f990    ....    BL       CLK_WaitClockReady ; 0x610
        0x000002f0:    2000        .       MOVS     r0,#0
        0x000002f2:    2502        .%      MOVS     r5,#2
        0x000002f4:    9603        ..      STR      r6,[sp,#0xc]
        0x000002f6:    9002        ..      STR      r0,[sp,#8]
        0x000002f8:    e7ec        ..      B        0x2d4 ; CLK_EnablePLL + 44
        0x000002fa:    4848        HH      LDR      r0,[pc,#288] ; [0x41c] = 0xfd050f7f
        0x000002fc:    4948        HI      LDR      r1,[pc,#288] ; [0x420] = 0x2faf07f
        0x000002fe:    1820         .      ADDS     r0,r4,r0
        0x00000300:    4288        .B      CMP      r0,r1
        0x00000302:    d803        ..      BHI      0x30c ; CLK_EnablePLL + 100
        0x00000304:    2001        .       MOVS     r0,#1
        0x00000306:    0064        d.      LSLS     r4,r4,#1
        0x00000308:    9004        ..      STR      r0,[sp,#0x10]
        0x0000030a:    e008        ..      B        0x31e ; CLK_EnablePLL + 118
        0x0000030c:    4845        EH      LDR      r0,[pc,#276] ; [0x424] = 0xfe8287c0
        0x0000030e:    4945        EI      LDR      r1,[pc,#276] ; [0x424] = 0xfe8287c0
        0x00000310:    1820         .      ADDS     r0,r4,r0
        0x00000312:    4249        IB      RSBS     r1,r1,#0
        0x00000314:    4288        .B      CMP      r0,r1
        0x00000316:    d849        I.      BHI      0x3ac ; CLK_EnablePLL + 260
        0x00000318:    2003        .       MOVS     r0,#3
        0x0000031a:    00a4        ..      LSLS     r4,r4,#2
        0x0000031c:    9004        ..      STR      r0,[sp,#0x10]
        0x0000031e:    2600        .&      MOVS     r6,#0
        0x00000320:    43f6        .C      MVNS     r6,r6
        0x00000322:    2000        .       MOVS     r0,#0
        0x00000324:    9000        ..      STR      r0,[sp,#0]
        0x00000326:    9001        ..      STR      r0,[sp,#4]
        0x00000328:    e021        !.      B        0x36e ; CLK_EnablePLL + 198
        0x0000032a:    4629        )F      MOV      r1,r5
        0x0000032c:    9803        ..      LDR      r0,[sp,#0xc]
        0x0000032e:    f7ffff05    ....    BL       __aeabi_uidiv ; 0x13c
        0x00000332:    493d        =I      LDR      r1,[pc,#244] ; [0x428] = 0xffe795ff
        0x00000334:    4a3d        =J      LDR      r2,[pc,#244] ; [0x42c] = 0xcc77bf
        0x00000336:    1841        A.      ADDS     r1,r0,r1
        0x00000338:    4291        .B      CMP      r1,r2
        0x0000033a:    d217        ..      BCS      0x36c ; CLK_EnablePLL + 196
        0x0000033c:    2202        ."      MOVS     r2,#2
        0x0000033e:    4b35        5K      LDR      r3,[pc,#212] ; [0x414] = 0xfa0a1eff
        0x00000340:    4601        .F      MOV      r1,r0
        0x00000342:    4351        QC      MULS     r1,r2,r1
        0x00000344:    1c5b        [.      ADDS     r3,r3,#1
        0x00000346:    18cf        ..      ADDS     r7,r1,r3
        0x00000348:    425b        [B      RSBS     r3,r3,#0
        0x0000034a:    429f        .B      CMP      r7,r3
        0x0000034c:    d80a        ..      BHI      0x364 ; CLK_EnablePLL + 188
        0x0000034e:    42a1        .B      CMP      r1,r4
        0x00000350:    d901        ..      BLS      0x356 ; CLK_EnablePLL + 174
        0x00000352:    1b0b        ..      SUBS     r3,r1,r4
        0x00000354:    e000        ..      B        0x358 ; CLK_EnablePLL + 176
        0x00000356:    1a63        c.      SUBS     r3,r4,r1
        0x00000358:    42b3        .B      CMP      r3,r6
        0x0000035a:    d203        ..      BCS      0x364 ; CLK_EnablePLL + 188
        0x0000035c:    001e        ..      MOVS     r6,r3
        0x0000035e:    9500        ..      STR      r5,[sp,#0]
        0x00000360:    9201        ..      STR      r2,[sp,#4]
        0x00000362:    d003        ..      BEQ      0x36c ; CLK_EnablePLL + 196
        0x00000364:    4932        2I      LDR      r1,[pc,#200] ; [0x430] = 0x201
        0x00000366:    1c52        R.      ADDS     r2,r2,#1
        0x00000368:    428a        .B      CMP      r2,r1
        0x0000036a:    d9e8        ..      BLS      0x33e ; CLK_EnablePLL + 150
        0x0000036c:    1c6d        m.      ADDS     r5,r5,#1
        0x0000036e:    2d21        !-      CMP      r5,#0x21
        0x00000370:    d9db        ..      BLS      0x32a ; CLK_EnablePLL + 130
        0x00000372:    9804        ..      LDR      r0,[sp,#0x10]
        0x00000374:    9902        ..      LDR      r1,[sp,#8]
        0x00000376:    0380        ..      LSLS     r0,r0,#14
        0x00000378:    4308        .C      ORRS     r0,r0,r1
        0x0000037a:    9900        ..      LDR      r1,[sp,#0]
        0x0000037c:    2201        ."      MOVS     r2,#1
        0x0000037e:    0249        I.      LSLS     r1,r1,#9
        0x00000380:    0292        ..      LSLS     r2,r2,#10
        0x00000382:    1a89        ..      SUBS     r1,r1,r2
        0x00000384:    4308        .C      ORRS     r0,r0,r1
        0x00000386:    9901        ..      LDR      r1,[sp,#4]
        0x00000388:    1e89        ..      SUBS     r1,r1,#2
        0x0000038a:    4308        .C      ORRS     r0,r0,r1
        0x0000038c:    491e        .I      LDR      r1,[pc,#120] ; [0x408] = 0x50000200
        0x0000038e:    6208        .b      STR      r0,[r1,#0x20]
        0x00000390:    2004        .       MOVS     r0,#4
        0x00000392:    f000f93d    ..=.    BL       CLK_WaitClockReady ; 0x610
        0x00000396:    9904        ..      LDR      r1,[sp,#0x10]
        0x00000398:    9800        ..      LDR      r0,[sp,#0]
        0x0000039a:    1c49        I.      ADDS     r1,r1,#1
        0x0000039c:    4341        AC      MULS     r1,r0,r1
        0x0000039e:    9803        ..      LDR      r0,[sp,#0xc]
        0x000003a0:    f7fffecc    ....    BL       __aeabi_uidiv ; 0x13c
        0x000003a4:    9901        ..      LDR      r1,[sp,#4]
        0x000003a6:    4348        HC      MULS     r0,r1,r0
        0x000003a8:    b005        ..      ADD      sp,sp,#0x14
        0x000003aa:    bdf0        ..      POP      {r4-r7,pc}
        0x000003ac:    2f00        ./      CMP      r7,#0
        0x000003ae:    d00f        ..      BEQ      0x3d0 ; CLK_EnablePLL + 296
        0x000003b0:    4920         I      LDR      r1,[pc,#128] ; [0x434] = 0x8d66f
        0x000003b2:    4815        .H      LDR      r0,[pc,#84] ; [0x408] = 0x50000200
        0x000003b4:    6201        .b      STR      r1,[r0,#0x20]
        0x000003b6:    2004        .       MOVS     r0,#4
        0x000003b8:    f000f92a    ..*.    BL       CLK_WaitClockReady ; 0x610
        0x000003bc:    a01e        ..      ADR      r0,{pc}+0x7c ; 0x438
        0x000003be:    6800        .h      LDR      r0,[r0,#0]
        0x000003c0:    9000        ..      STR      r0,[sp,#0]
        0x000003c2:    4811        .H      LDR      r0,[pc,#68] ; [0x408] = 0x50000200
        0x000003c4:    6a01        .j      LDR      r1,[r0,#0x20]
        0x000003c6:    1300        ..      ASRS     r0,r0,#12
        0x000003c8:    4201        .B      TST      r1,r0
        0x000003ca:    d003        ..      BEQ      0x3d4 ; CLK_EnablePLL + 300
        0x000003cc:    2000        .       MOVS     r0,#0
        0x000003ce:    e7eb        ..      B        0x3a8 ; CLK_EnablePLL + 256
        0x000003d0:    491a        .I      LDR      r1,[pc,#104] ; [0x43c] = 0xc22e
        0x000003d2:    e7ee        ..      B        0x3b2 ; CLK_EnablePLL + 266
        0x000003d4:    0308        ..      LSLS     r0,r1,#12
        0x000003d6:    d500        ..      BPL      0x3da ; CLK_EnablePLL + 306
        0x000003d8:    4e0d        .N      LDR      r6,[pc,#52] ; [0x410] = 0x1518000
        0x000003da:    0388        ..      LSLS     r0,r1,#14
        0x000003dc:    d501        ..      BPL      0x3e2 ; CLK_EnablePLL + 314
        0x000003de:    4630        0F      MOV      r0,r6
        0x000003e0:    e7e2        ..      B        0x3a8 ; CLK_EnablePLL + 256
        0x000003e2:    0408        ..      LSLS     r0,r1,#16
        0x000003e4:    0f80        ..      LSRS     r0,r0,#30
        0x000003e6:    466a        jF      MOV      r2,sp
        0x000003e8:    5c10        .\      LDRB     r0,[r2,r0]
        0x000003ea:    05ca        ..      LSLS     r2,r1,#23
        0x000003ec:    0489        ..      LSLS     r1,r1,#18
        0x000003ee:    0ec9        ..      LSRS     r1,r1,#27
        0x000003f0:    1c89        ..      ADDS     r1,r1,#2
        0x000003f2:    0dd2        ..      LSRS     r2,r2,#23
        0x000003f4:    4341        AC      MULS     r1,r0,r1
        0x000003f6:    08b0        ..      LSRS     r0,r6,#2
        0x000003f8:    1c92        ..      ADDS     r2,r2,#2
        0x000003fa:    4350        PC      MULS     r0,r2,r0
        0x000003fc:    f7fffe9e    ....    BL       __aeabi_uidiv ; 0x13c
        0x00000400:    0080        ..      LSLS     r0,r0,#2
        0x00000402:    e7d1        ..      B        0x3a8 ; CLK_EnablePLL + 256
    $d
        0x00000404:    00010000    ....    DCD    65536
        0x00000408:    50000200    ...P    DCD    1342177792
        0x0000040c:    00b71b00    ....    DCD    12000000
        0x00000410:    01518000    ..Q.    DCD    22118400
        0x00000414:    fa0a1eff    ....    DCD    4194967295
        0x00000418:    05f5e0ff    ....    DCD    99999999
        0x0000041c:    fd050f7f    ....    DCD    4244967295
        0x00000420:    02faf07f    ....    DCD    49999999
        0x00000424:    fe8287c0    ....    DCD    4269967296
        0x00000428:    ffe795ff    ....    DCD    4293367295
        0x0000042c:    00cc77bf    .w..    DCD    13399999
        0x00000430:    00000201    ....    DCD    513
        0x00000434:    0008d66f    o...    DCD    579183
        0x00000438:    04020201    ....    DCD    67240449
        0x0000043c:    0000c22e    ....    DCD    49710
    $t
    i.CLK_EnableXtalRC
    CLK_EnableXtalRC
        0x00000440:    4902        .I      LDR      r1,[pc,#8] ; [0x44c] = 0x50000200
        0x00000442:    680a        .h      LDR      r2,[r1,#0]
        0x00000444:    4302        .C      ORRS     r2,r2,r0
        0x00000446:    600a        .`      STR      r2,[r1,#0]
        0x00000448:    4770        pG      BX       lr
    $d
        0x0000044a:    0000        ..      DCW    0
        0x0000044c:    50000200    ...P    DCD    1342177792
    $t
    i.CLK_GetCPUFreq
    CLK_GetCPUFreq
        0x00000450:    b510        ..      PUSH     {r4,lr}
        0x00000452:    f000fca5    ....    BL       SystemCoreClockUpdate ; 0xda0
        0x00000456:    4801        .H      LDR      r0,[pc,#4] ; [0x45c] = 0x20000000
        0x00000458:    6800        .h      LDR      r0,[r0,#0]
        0x0000045a:    bd10        ..      POP      {r4,pc}
    $d
        0x0000045c:    20000000    ...     DCD    536870912
    $t
    i.CLK_GetHCLKFreq
    CLK_GetHCLKFreq
        0x00000460:    b510        ..      PUSH     {r4,lr}
        0x00000462:    f000fc9d    ....    BL       SystemCoreClockUpdate ; 0xda0
        0x00000466:    4801        .H      LDR      r0,[pc,#4] ; [0x46c] = 0x20000000
        0x00000468:    6800        .h      LDR      r0,[r0,#0]
        0x0000046a:    bd10        ..      POP      {r4,pc}
    $d
        0x0000046c:    20000000    ...     DCD    536870912
    $t
    i.CLK_GetHXTFreq
    CLK_GetHXTFreq
        0x00000470:    4802        .H      LDR      r0,[pc,#8] ; [0x47c] = 0x50000200
        0x00000472:    6800        .h      LDR      r0,[r0,#0]
        0x00000474:    07c0        ..      LSLS     r0,r0,#31
        0x00000476:    d000        ..      BEQ      0x47a ; CLK_GetHXTFreq + 10
        0x00000478:    4801        .H      LDR      r0,[pc,#4] ; [0x480] = 0xb71b00
        0x0000047a:    4770        pG      BX       lr
    $d
        0x0000047c:    50000200    ...P    DCD    1342177792
        0x00000480:    00b71b00    ....    DCD    12000000
    $t
    i.CLK_GetPCLKFreq
    CLK_GetPCLKFreq
        0x00000484:    b510        ..      PUSH     {r4,lr}
        0x00000486:    f000fc8b    ....    BL       SystemCoreClockUpdate ; 0xda0
        0x0000048a:    4801        .H      LDR      r0,[pc,#4] ; [0x490] = 0x20000000
        0x0000048c:    6800        .h      LDR      r0,[r0,#0]
        0x0000048e:    bd10        ..      POP      {r4,pc}
    $d
        0x00000490:    20000000    ...     DCD    536870912
    $t
    i.CLK_GetPLLClockFreq
    CLK_GetPLLClockFreq
        0x00000494:    b508        ..      PUSH     {r3,lr}
        0x00000496:    a011        ..      ADR      r0,{pc}+0x46 ; 0x4dc
        0x00000498:    6800        .h      LDR      r0,[r0,#0]
        0x0000049a:    9000        ..      STR      r0,[sp,#0]
        0x0000049c:    4810        .H      LDR      r0,[pc,#64] ; [0x4e0] = 0x50000200
        0x0000049e:    6a01        .j      LDR      r1,[r0,#0x20]
        0x000004a0:    1300        ..      ASRS     r0,r0,#12
        0x000004a2:    4201        .B      TST      r1,r0
        0x000004a4:    d001        ..      BEQ      0x4aa ; CLK_GetPLLClockFreq + 22
        0x000004a6:    2000        .       MOVS     r0,#0
        0x000004a8:    bd08        ..      POP      {r3,pc}
        0x000004aa:    0308        ..      LSLS     r0,r1,#12
        0x000004ac:    d501        ..      BPL      0x4b2 ; CLK_GetPLLClockFreq + 30
        0x000004ae:    480d        .H      LDR      r0,[pc,#52] ; [0x4e4] = 0x1518000
        0x000004b0:    e000        ..      B        0x4b4 ; CLK_GetPLLClockFreq + 32
        0x000004b2:    480d        .H      LDR      r0,[pc,#52] ; [0x4e8] = 0xb71b00
        0x000004b4:    038a        ..      LSLS     r2,r1,#14
        0x000004b6:    d4f7        ..      BMI      0x4a8 ; CLK_GetPLLClockFreq + 20
        0x000004b8:    040a        ..      LSLS     r2,r1,#16
        0x000004ba:    0f92        ..      LSRS     r2,r2,#30
        0x000004bc:    466b        kF      MOV      r3,sp
        0x000004be:    5c9b        .\      LDRB     r3,[r3,r2]
        0x000004c0:    05ca        ..      LSLS     r2,r1,#23
        0x000004c2:    0489        ..      LSLS     r1,r1,#18
        0x000004c4:    0dd2        ..      LSRS     r2,r2,#23
        0x000004c6:    0ec9        ..      LSRS     r1,r1,#27
        0x000004c8:    1c89        ..      ADDS     r1,r1,#2
        0x000004ca:    0880        ..      LSRS     r0,r0,#2
        0x000004cc:    1c92        ..      ADDS     r2,r2,#2
        0x000004ce:    4359        YC      MULS     r1,r3,r1
        0x000004d0:    4350        PC      MULS     r0,r2,r0
        0x000004d2:    f7fffe33    ..3.    BL       __aeabi_uidiv ; 0x13c
        0x000004d6:    0080        ..      LSLS     r0,r0,#2
        0x000004d8:    bd08        ..      POP      {r3,pc}
    $d
        0x000004da:    0000        ..      DCW    0
        0x000004dc:    04020201    ....    DCD    67240449
        0x000004e0:    50000200    ...P    DCD    1342177792
        0x000004e4:    01518000    ..Q.    DCD    22118400
        0x000004e8:    00b71b00    ....    DCD    12000000
    $t
    i.CLK_SetCoreClock
    CLK_SetCoreClock
        0x000004ec:    b5f8        ..      PUSH     {r3-r7,lr}
        0x000004ee:    4d1c        .M      LDR      r5,[pc,#112] ; [0x560] = 0x50000200
        0x000004f0:    4604        .F      MOV      r4,r0
        0x000004f2:    68ee        .h      LDR      r6,[r5,#0xc]
        0x000004f4:    2010        .       MOVS     r0,#0x10
        0x000004f6:    4006        .@      ANDS     r6,r6,r0
        0x000004f8:    481a        .H      LDR      r0,[pc,#104] ; [0x564] = 0x2faf080
        0x000004fa:    4284        .B      CMP      r4,r0
        0x000004fc:    d802        ..      BHI      0x504 ; CLK_SetCoreClock + 24
        0x000004fe:    1040        @.      ASRS     r0,r0,#1
        0x00000500:    4284        .B      CMP      r4,r0
        0x00000502:    d200        ..      BCS      0x506 ; CLK_SetCoreClock + 26
        0x00000504:    4604        .F      MOV      r4,r0
        0x00000506:    6828        (h      LDR      r0,[r5,#0]
        0x00000508:    2704        .'      MOVS     r7,#4
        0x0000050a:    4338        8C      ORRS     r0,r0,r7
        0x0000050c:    6028        (`      STR      r0,[r5,#0]
        0x0000050e:    2010        .       MOVS     r0,#0x10
        0x00000510:    f000f87e    ..~.    BL       CLK_WaitClockReady ; 0x610
        0x00000514:    6928        (i      LDR      r0,[r5,#0x10]
        0x00000516:    2107        .!      MOVS     r1,#7
        0x00000518:    4308        .C      ORRS     r0,r0,r1
        0x0000051a:    6128        (a      STR      r0,[r5,#0x10]
        0x0000051c:    69a8        .i      LDR      r0,[r5,#0x18]
        0x0000051e:    0900        ..      LSRS     r0,r0,#4
        0x00000520:    0100        ..      LSLS     r0,r0,#4
        0x00000522:    61a8        .a      STR      r0,[r5,#0x18]
        0x00000524:    68e8        .h      LDR      r0,[r5,#0xc]
        0x00000526:    07c0        ..      LSLS     r0,r0,#31
        0x00000528:    d005        ..      BEQ      0x536 ; CLK_SetCoreClock + 74
        0x0000052a:    0061        a.      LSLS     r1,r4,#1
        0x0000052c:    2000        .       MOVS     r0,#0
        0x0000052e:    f7fffebb    ....    BL       CLK_EnablePLL ; 0x2a8
        0x00000532:    4604        .F      MOV      r4,r0
        0x00000534:    e008        ..      B        0x548 ; CLK_SetCoreClock + 92
        0x00000536:    2001        .       MOVS     r0,#1
        0x00000538:    0061        a.      LSLS     r1,r4,#1
        0x0000053a:    04c0        ..      LSLS     r0,r0,#19
        0x0000053c:    f7fffeb4    ....    BL       CLK_EnablePLL ; 0x2a8
        0x00000540:    68ee        .h      LDR      r6,[r5,#0xc]
        0x00000542:    4604        .F      MOV      r4,r0
        0x00000544:    2010        .       MOVS     r0,#0x10
        0x00000546:    4006        .@      ANDS     r6,r6,r0
        0x00000548:    2101        .!      MOVS     r1,#1
        0x0000054a:    2002        .       MOVS     r0,#2
        0x0000054c:    f000f80c    ....    BL       CLK_SetHCLK ; 0x568
        0x00000550:    2e00        ..      CMP      r6,#0
        0x00000552:    d102        ..      BNE      0x55a ; CLK_SetCoreClock + 110
        0x00000554:    6828        (h      LDR      r0,[r5,#0]
        0x00000556:    43b8        .C      BICS     r0,r0,r7
        0x00000558:    6028        (`      STR      r0,[r5,#0]
        0x0000055a:    0860        `.      LSRS     r0,r4,#1
        0x0000055c:    bdf8        ..      POP      {r3-r7,pc}
    $d
        0x0000055e:    0000        ..      DCW    0
        0x00000560:    50000200    ...P    DCD    1342177792
        0x00000564:    02faf080    ....    DCD    50000000
    $t
    i.CLK_SetHCLK
    CLK_SetHCLK
        0x00000568:    b570        p.      PUSH     {r4-r6,lr}
        0x0000056a:    4c10        .L      LDR      r4,[pc,#64] ; [0x5ac] = 0x50000200
        0x0000056c:    68e5        .h      LDR      r5,[r4,#0xc]
        0x0000056e:    2210        ."      MOVS     r2,#0x10
        0x00000570:    4015        .@      ANDS     r5,r5,r2
        0x00000572:    6822        "h      LDR      r2,[r4,#0]
        0x00000574:    2604        .&      MOVS     r6,#4
        0x00000576:    4332        2C      ORRS     r2,r2,r6
        0x00000578:    6022        "`      STR      r2,[r4,#0]
        0x0000057a:    68e2        .h      LDR      r2,[r4,#0xc]
        0x0000057c:    06d2        ..      LSLS     r2,r2,#27
        0x0000057e:    d5fc        ..      BPL      0x57a ; CLK_SetHCLK + 18
        0x00000580:    6922        "i      LDR      r2,[r4,#0x10]
        0x00000582:    2307        .#      MOVS     r3,#7
        0x00000584:    431a        .C      ORRS     r2,r2,r3
        0x00000586:    6122        "a      STR      r2,[r4,#0x10]
        0x00000588:    69a2        .i      LDR      r2,[r4,#0x18]
        0x0000058a:    0912        ..      LSRS     r2,r2,#4
        0x0000058c:    0112        ..      LSLS     r2,r2,#4
        0x0000058e:    430a        .C      ORRS     r2,r2,r1
        0x00000590:    61a2        .a      STR      r2,[r4,#0x18]
        0x00000592:    6921        !i      LDR      r1,[r4,#0x10]
        0x00000594:    4399        .C      BICS     r1,r1,r3
        0x00000596:    4301        .C      ORRS     r1,r1,r0
        0x00000598:    6121        !a      STR      r1,[r4,#0x10]
        0x0000059a:    f000fc01    ....    BL       SystemCoreClockUpdate ; 0xda0
        0x0000059e:    2d00        .-      CMP      r5,#0
        0x000005a0:    d102        ..      BNE      0x5a8 ; CLK_SetHCLK + 64
        0x000005a2:    6820         h      LDR      r0,[r4,#0]
        0x000005a4:    43b0        .C      BICS     r0,r0,r6
        0x000005a6:    6020         `      STR      r0,[r4,#0]
        0x000005a8:    bd70        p.      POP      {r4-r6,pc}
    $d
        0x000005aa:    0000        ..      DCW    0
        0x000005ac:    50000200    ...P    DCD    1342177792
    $t
    i.CLK_SetModuleClock
    CLK_SetModuleClock
        0x000005b0:    b57f        ..      PUSH     {r0-r6,lr}
        0x000005b2:    4b15        .K      LDR      r3,[pc,#84] ; [0x608] = 0x1e9c
        0x000005b4:    cb78        x.      LDM      r3,{r3-r6}
        0x000005b6:    9603        ..      STR      r6,[sp,#0xc]
        0x000005b8:    466e        nF      MOV      r6,sp
        0x000005ba:    c638        8.      STM      r6!,{r3-r5}
        0x000005bc:    0a84        ..      LSRS     r4,r0,#10
        0x000005be:    0623        #.      LSLS     r3,r4,#24
        0x000005c0:    0e1b        ..      LSRS     r3,r3,#24
        0x000005c2:    d00c        ..      BEQ      0x5de ; CLK_SetModuleClock + 46
        0x000005c4:    0303        ..      LSLS     r3,r0,#12
        0x000005c6:    0f9b        ..      LSRS     r3,r3,#30
        0x000005c8:    4d10        .M      LDR      r5,[pc,#64] ; [0x60c] = 0x50000218
        0x000005ca:    009b        ..      LSLS     r3,r3,#2
        0x000005cc:    195b        [.      ADDS     r3,r3,r5
        0x000005ce:    b2e5        ..      UXTB     r5,r4
        0x000005d0:    0584        ..      LSLS     r4,r0,#22
        0x000005d2:    0ee4        ..      LSRS     r4,r4,#27
        0x000005d4:    40a5        .@      LSLS     r5,r5,r4
        0x000005d6:    681c        .h      LDR      r4,[r3,#0]
        0x000005d8:    43ac        .C      BICS     r4,r4,r5
        0x000005da:    4314        .C      ORRS     r4,r4,r2
        0x000005dc:    601c        .`      STR      r4,[r3,#0]
        0x000005de:    0e42        B.      LSRS     r2,r0,#25
        0x000005e0:    0752        R.      LSLS     r2,r2,#29
        0x000005e2:    d010        ..      BEQ      0x606 ; CLK_SetModuleClock + 86
        0x000005e4:    0082        ..      LSLS     r2,r0,#2
        0x000005e6:    0f92        ..      LSRS     r2,r2,#30
        0x000005e8:    0092        ..      LSLS     r2,r2,#2
        0x000005ea:    466b        kF      MOV      r3,sp
        0x000005ec:    589a        .X      LDR      r2,[r3,r2]
        0x000005ee:    4b07        .K      LDR      r3,[pc,#28] ; [0x60c] = 0x50000218
        0x000005f0:    3b08        .;      SUBS     r3,r3,#8
        0x000005f2:    18d2        ..      ADDS     r2,r2,r3
        0x000005f4:    0103        ..      LSLS     r3,r0,#4
        0x000005f6:    0f5b        [.      LSRS     r3,r3,#29
        0x000005f8:    01c0        ..      LSLS     r0,r0,#7
        0x000005fa:    0ec0        ..      LSRS     r0,r0,#27
        0x000005fc:    4083        .@      LSLS     r3,r3,r0
        0x000005fe:    6810        .h      LDR      r0,[r2,#0]
        0x00000600:    4398        .C      BICS     r0,r0,r3
        0x00000602:    4308        .C      ORRS     r0,r0,r1
        0x00000604:    6010        .`      STR      r0,[r2,#0]
        0x00000606:    bd7f        ..      POP      {r0-r6,pc}
    $d
        0x00000608:    00001e9c    ....    DCD    7836
        0x0000060c:    50000218    ...P    DCD    1342177816
    $t
    i.CLK_WaitClockReady
    CLK_WaitClockReady
        0x00000610:    b510        ..      PUSH     {r4,lr}
        0x00000612:    4604        .F      MOV      r4,r0
        0x00000614:    4907        .I      LDR      r1,[pc,#28] ; [0x634] = 0x124f80
        0x00000616:    4b08        .K      LDR      r3,[pc,#32] ; [0x638] = 0x50000200
        0x00000618:    e005        ..      B        0x626 ; CLK_WaitClockReady + 22
        0x0000061a:    460a        .F      MOV      r2,r1
        0x0000061c:    1e49        I.      SUBS     r1,r1,#1
        0x0000061e:    2a00        .*      CMP      r2,#0
        0x00000620:    dc01        ..      BGT      0x626 ; CLK_WaitClockReady + 22
        0x00000622:    2000        .       MOVS     r0,#0
        0x00000624:    bd10        ..      POP      {r4,pc}
        0x00000626:    68da        .h      LDR      r2,[r3,#0xc]
        0x00000628:    4620         F      MOV      r0,r4
        0x0000062a:    4390        .C      BICS     r0,r0,r2
        0x0000062c:    d1f5        ..      BNE      0x61a ; CLK_WaitClockReady + 10
        0x0000062e:    2001        .       MOVS     r0,#1
        0x00000630:    bd10        ..      POP      {r4,pc}
    $d
        0x00000632:    0000        ..      DCW    0
        0x00000634:    00124f80    .O..    DCD    1200000
        0x00000638:    50000200    ...P    DCD    1342177792
    $t
    i.Checksum
    Checksum
        0x0000063c:    4603        .F      MOV      r3,r0
        0x0000063e:    b510        ..      PUSH     {r4,lr}
        0x00000640:    2000        .       MOVS     r0,#0
        0x00000642:    4602        .F      MOV      r2,r0
        0x00000644:    e003        ..      B        0x64e ; Checksum + 18
        0x00000646:    5c9c        .\      LDRB     r4,[r3,r2]
        0x00000648:    1820         .      ADDS     r0,r4,r0
        0x0000064a:    b280        ..      UXTH     r0,r0
        0x0000064c:    1c52        R.      ADDS     r2,r2,#1
        0x0000064e:    428a        .B      CMP      r2,r1
        0x00000650:    dbf9        ..      BLT      0x646 ; Checksum + 10
        0x00000652:    bd10        ..      POP      {r4,pc}
    i.DEBUG_UART_Init
    DEBUG_UART_Init
        0x00000654:    b510        ..      PUSH     {r4,lr}
        0x00000656:    4815        .H      LDR      r0,[pc,#84] ; [0x6ac] = 0x4000011
        0x00000658:    f000fb42    ..B.    BL       SYS_ResetModule ; 0xce0
        0x0000065c:    4c14        .L      LDR      r4,[pc,#80] ; [0x6b0] = 0x40150000
        0x0000065e:    21e1        .!      MOVS     r1,#0xe1
        0x00000660:    0249        I.      LSLS     r1,r1,#9
        0x00000662:    4620         F      MOV      r0,r4
        0x00000664:    f000fd14    ....    BL       UART_Open ; 0x1090
        0x00000668:    2111        .!      MOVS     r1,#0x11
        0x0000066a:    4620         F      MOV      r0,r4
        0x0000066c:    f000fcc0    ....    BL       UART_EnableInt ; 0xff0
        0x00000670:    2001        .       MOVS     r0,#1
        0x00000672:    4910        .I      LDR      r1,[pc,#64] ; [0x6b4] = 0xe000e100
        0x00000674:    0340        @.      LSLS     r0,r0,#13
        0x00000676:    6008        .`      STR      r0,[r1,#0]
        0x00000678:    f7fffefa    ....    BL       CLK_GetHXTFreq ; 0x470
        0x0000067c:    4601        .F      MOV      r1,r0
        0x0000067e:    a00e        ..      ADR      r0,{pc}+0x3a ; 0x6b8
        0x00000680:    f000fdbe    ....    BL       __0printf$8 ; 0x1200
        0x00000684:    f7fffeec    ....    BL       CLK_GetHCLKFreq ; 0x460
        0x00000688:    4601        .F      MOV      r1,r0
        0x0000068a:    a016        ..      ADR      r0,{pc}+0x5a ; 0x6e4
        0x0000068c:    f000fdb8    ....    BL       __0printf$8 ; 0x1200
        0x00000690:    f7fffef8    ....    BL       CLK_GetPCLKFreq ; 0x484
        0x00000694:    4601        .F      MOV      r1,r0
        0x00000696:    a01e        ..      ADR      r0,{pc}+0x7a ; 0x710
        0x00000698:    f000fdb2    ....    BL       __0printf$8 ; 0x1200
        0x0000069c:    f7fffed8    ....    BL       CLK_GetCPUFreq ; 0x450
        0x000006a0:    4601        .F      MOV      r1,r0
        0x000006a2:    a026        &.      ADR      r0,{pc}+0x9a ; 0x73c
        0x000006a4:    f000fdac    ....    BL       __0printf$8 ; 0x1200
        0x000006a8:    bd10        ..      POP      {r4,pc}
    $d
        0x000006aa:    0000        ..      DCW    0
        0x000006ac:    04000011    ....    DCD    67108881
        0x000006b0:    40150000    ...@    DCD    1075118080
        0x000006b4:    e000e100    ....    DCD    3758153984
        0x000006b8:    3b315b1b    .[1;    DCD    993090331
        0x000006bc:    5b6d3633    36m[    DCD    1533883955
        0x000006c0:    4f52444c    LDRO    DCD    1330791500
        0x000006c4:    0a0d5d4d    M]..    DCD    168648013
        0x000006c8:    5f4b4c43    CLK_    DCD    1598770243
        0x000006cc:    43746547    GetC    DCD    1131701575
        0x000006d0:    72465550    PUFr    DCD    1917211984
        0x000006d4:    3a207165    eq :    DCD    975204709
        0x000006d8:    64382520     %8d    DCD    1681401120
        0x000006dc:    5b1b0a0d    ...[    DCD    1528498701
        0x000006e0:    00006d30    0m..    DCD    27952
        0x000006e4:    3b315b1b    .[1;    DCD    993090331
        0x000006e8:    5b6d3633    36m[    DCD    1533883955
        0x000006ec:    4f52444c    LDRO    DCD    1330791500
        0x000006f0:    4c435d4d    M]CL    DCD    1279483213
        0x000006f4:    65475f4b    K_Ge    DCD    1699176267
        0x000006f8:    54584874    tHXT    DCD    1415071860
        0x000006fc:    71657246    Freq    DCD    1902473798
        0x00000700:    25203a20     : %    DCD    622869024
        0x00000704:    0a0d6438    8d..    DCD    168649784
        0x00000708:    6d305b1b    .[0m    DCD    1831885595
        0x0000070c:    00000000    ....    DCD    0
        0x00000710:    3b315b1b    .[1;    DCD    993090331
        0x00000714:    5b6d3633    36m[    DCD    1533883955
        0x00000718:    4f52444c    LDRO    DCD    1330791500
        0x0000071c:    4c435d4d    M]CL    DCD    1279483213
        0x00000720:    65475f4b    K_Ge    DCD    1699176267
        0x00000724:    54584c74    tLXT    DCD    1415072884
        0x00000728:    71657246    Freq    DCD    1902473798
        0x0000072c:    25203a20     : %    DCD    622869024
        0x00000730:    0a0d6438    8d..    DCD    168649784
        0x00000734:    6d305b1b    .[0m    DCD    1831885595
        0x00000738:    00000000    ....    DCD    0
        0x0000073c:    3b315b1b    .[1;    DCD    993090331
        0x00000740:    5b6d3633    36m[    DCD    1533883955
        0x00000744:    4f52444c    LDRO    DCD    1330791500
        0x00000748:    4c435d4d    M]CL    DCD    1279483213
        0x0000074c:    65475f4b    K_Ge    DCD    1699176267
        0x00000750:    4c435074    tPCL    DCD    1279479924
        0x00000754:    7246304b    K0Fr    DCD    1917202507
        0x00000758:    3a207165    eq :    DCD    975204709
        0x0000075c:    64382520     %8d    DCD    1681401120
        0x00000760:    5b1b0a0d    ...[    DCD    1528498701
        0x00000764:    00006d30    0m..    DCD    27952
    $t
    i.EraseAP
    EraseAP
        0x00000768:    b570        p.      PUSH     {r4-r6,lr}
        0x0000076a:    4604        .F      MOV      r4,r0
        0x0000076c:    1845        E.      ADDS     r5,r0,r1
        0x0000076e:    e005        ..      B        0x77c ; EraseAP + 20
        0x00000770:    4620         F      MOV      r0,r4
        0x00000772:    f000f807    ....    BL       FMC_Erase_User ; 0x784
        0x00000776:    34ff        .4      ADDS     r4,r4,#0xff
        0x00000778:    34ff        .4      ADDS     r4,r4,#0xff
        0x0000077a:    3402        .4      ADDS     r4,#2
        0x0000077c:    42a5        .B      CMP      r5,r4
        0x0000077e:    d8f7        ..      BHI      0x770 ; EraseAP + 8
        0x00000780:    bd70        p.      POP      {r4-r6,pc}
        0x00000782:    0000        ..      MOVS     r0,r0
    i.FMC_Erase_User
    FMC_Erase_User
        0x00000784:    4908        .I      LDR      r1,[pc,#32] ; [0x7a8] = 0x5000c000
        0x00000786:    2222        ""      MOVS     r2,#0x22
        0x00000788:    60ca        .`      STR      r2,[r1,#0xc]
        0x0000078a:    6048        H`      STR      r0,[r1,#4]
        0x0000078c:    2001        .       MOVS     r0,#1
        0x0000078e:    6108        .a      STR      r0,[r1,#0x10]
        0x00000790:    f3bf8f6f    ..o.    ISB      
        0x00000794:    6808        .h      LDR      r0,[r1,#0]
        0x00000796:    0642        B.      LSLS     r2,r0,#25
        0x00000798:    d503        ..      BPL      0x7a2 ; FMC_Erase_User + 30
        0x0000079a:    6008        .`      STR      r0,[r1,#0]
        0x0000079c:    2000        .       MOVS     r0,#0
        0x0000079e:    43c0        .C      MVNS     r0,r0
        0x000007a0:    4770        pG      BX       lr
        0x000007a2:    2000        .       MOVS     r0,#0
        0x000007a4:    4770        pG      BX       lr
    $d
        0x000007a6:    0000        ..      DCW    0
        0x000007a8:    5000c000    ...P    DCD    1342226432
    $t
    i.FMC_Open
    FMC_Open
        0x000007ac:    4802        .H      LDR      r0,[pc,#8] ; [0x7b8] = 0x5000c000
        0x000007ae:    6801        .h      LDR      r1,[r0,#0]
        0x000007b0:    2201        ."      MOVS     r2,#1
        0x000007b2:    4311        .C      ORRS     r1,r1,r2
        0x000007b4:    6001        .`      STR      r1,[r0,#0]
        0x000007b6:    4770        pG      BX       lr
    $d
        0x000007b8:    5000c000    ...P    DCD    1342226432
    $t
    i.FMC_Read
    FMC_Read
        0x000007bc:    4906        .I      LDR      r1,[pc,#24] ; [0x7d8] = 0x5000c000
        0x000007be:    2200        ."      MOVS     r2,#0
        0x000007c0:    60ca        .`      STR      r2,[r1,#0xc]
        0x000007c2:    6048        H`      STR      r0,[r1,#4]
        0x000007c4:    2001        .       MOVS     r0,#1
        0x000007c6:    6108        .a      STR      r0,[r1,#0x10]
        0x000007c8:    f3bf8f6f    ..o.    ISB      
        0x000007cc:    6908        .i      LDR      r0,[r1,#0x10]
        0x000007ce:    2800        .(      CMP      r0,#0
        0x000007d0:    d1fc        ..      BNE      0x7cc ; FMC_Read + 16
        0x000007d2:    6888        .h      LDR      r0,[r1,#8]
        0x000007d4:    4770        pG      BX       lr
    $d
        0x000007d6:    0000        ..      DCW    0
        0x000007d8:    5000c000    ...P    DCD    1342226432
    $t
    i.FMC_Read_User
    FMC_Read_User
        0x000007dc:    4a09        .J      LDR      r2,[pc,#36] ; [0x804] = 0x5000c000
        0x000007de:    2300        .#      MOVS     r3,#0
        0x000007e0:    60d3        .`      STR      r3,[r2,#0xc]
        0x000007e2:    6050        P`      STR      r0,[r2,#4]
        0x000007e4:    6093        .`      STR      r3,[r2,#8]
        0x000007e6:    2001        .       MOVS     r0,#1
        0x000007e8:    6110        .a      STR      r0,[r2,#0x10]
        0x000007ea:    f3bf8f6f    ..o.    ISB      
        0x000007ee:    6810        .h      LDR      r0,[r2,#0]
        0x000007f0:    0643        C.      LSLS     r3,r0,#25
        0x000007f2:    d503        ..      BPL      0x7fc ; FMC_Read_User + 32
        0x000007f4:    6010        .`      STR      r0,[r2,#0]
        0x000007f6:    2000        .       MOVS     r0,#0
        0x000007f8:    43c0        .C      MVNS     r0,r0
        0x000007fa:    4770        pG      BX       lr
        0x000007fc:    6890        .h      LDR      r0,[r2,#8]
        0x000007fe:    6008        .`      STR      r0,[r1,#0]
        0x00000800:    2000        .       MOVS     r0,#0
        0x00000802:    4770        pG      BX       lr
    $d
        0x00000804:    5000c000    ...P    DCD    1342226432
    $t
    i.FMC_SetVectorPageAddr
    FMC_SetVectorPageAddr
        0x00000808:    4905        .I      LDR      r1,[pc,#20] ; [0x820] = 0x5000c000
        0x0000080a:    222e        ."      MOVS     r2,#0x2e
        0x0000080c:    60ca        .`      STR      r2,[r1,#0xc]
        0x0000080e:    6048        H`      STR      r0,[r1,#4]
        0x00000810:    2001        .       MOVS     r0,#1
        0x00000812:    6108        .a      STR      r0,[r1,#0x10]
        0x00000814:    f3bf8f6f    ..o.    ISB      
        0x00000818:    6908        .i      LDR      r0,[r1,#0x10]
        0x0000081a:    2800        .(      CMP      r0,#0
        0x0000081c:    d1fc        ..      BNE      0x818 ; FMC_SetVectorPageAddr + 16
        0x0000081e:    4770        pG      BX       lr
    $d
        0x00000820:    5000c000    ...P    DCD    1342226432
    $t
    i.FMC_Write_User
    FMC_Write_User
        0x00000824:    4a08        .J      LDR      r2,[pc,#32] ; [0x848] = 0x5000c000
        0x00000826:    2321        !#      MOVS     r3,#0x21
        0x00000828:    60d3        .`      STR      r3,[r2,#0xc]
        0x0000082a:    6050        P`      STR      r0,[r2,#4]
        0x0000082c:    6091        .`      STR      r1,[r2,#8]
        0x0000082e:    2001        .       MOVS     r0,#1
        0x00000830:    6110        .a      STR      r0,[r2,#0x10]
        0x00000832:    f3bf8f6f    ..o.    ISB      
        0x00000836:    6810        .h      LDR      r0,[r2,#0]
        0x00000838:    0641        A.      LSLS     r1,r0,#25
        0x0000083a:    d503        ..      BPL      0x844 ; FMC_Write_User + 32
        0x0000083c:    6010        .`      STR      r0,[r2,#0]
        0x0000083e:    2000        .       MOVS     r0,#0
        0x00000840:    43c0        .C      MVNS     r0,r0
        0x00000842:    4770        pG      BX       lr
        0x00000844:    2000        .       MOVS     r0,#0
        0x00000846:    4770        pG      BX       lr
    $d
        0x00000848:    5000c000    ...P    DCD    1342226432
    $t
    i.GetDataFlashInfo
    GetDataFlashInfo
        0x0000084c:    b5f8        ..      PUSH     {r3-r7,lr}
        0x0000084e:    4605        .F      MOV      r5,r0
        0x00000850:    2600        .&      MOVS     r6,#0
        0x00000852:    460c        .F      MOV      r4,r1
        0x00000854:    600e        .`      STR      r6,[r1,#0]
        0x00000856:    2003        .       MOVS     r0,#3
        0x00000858:    4669        iF      MOV      r1,sp
        0x0000085a:    0500        ..      LSLS     r0,r0,#20
        0x0000085c:    f7ffffbe    ....    BL       FMC_Read_User ; 0x7dc
        0x00000860:    9800        ..      LDR      r0,[sp,#0]
        0x00000862:    4f15        .O      LDR      r7,[pc,#84] ; [0x8b8] = 0x1000
        0x00000864:    0741        A.      LSLS     r1,r0,#29
        0x00000866:    d503        ..      BPL      0x870 ; GetDataFlashInfo + 36
        0x00000868:    0138        8.      LSLS     r0,r7,#4
        0x0000086a:    6028        (`      STR      r0,[r5,#0]
        0x0000086c:    6027        '`      STR      r7,[r4,#0]
        0x0000086e:    bdf8        ..      POP      {r3-r7,pc}
        0x00000870:    4912        .I      LDR      r1,[pc,#72] ; [0x8bc] = 0x20000068
        0x00000872:    07c0        ..      LSLS     r0,r0,#31
        0x00000874:    d005        ..      BEQ      0x882 ; GetDataFlashInfo + 54
        0x00000876:    6808        .h      LDR      r0,[r1,#0]
        0x00000878:    19c0        ..      ADDS     r0,r0,r7
        0x0000087a:    6008        .`      STR      r0,[r1,#0]
        0x0000087c:    6028        (`      STR      r0,[r5,#0]
        0x0000087e:    6026        &`      STR      r6,[r4,#0]
        0x00000880:    bdf8        ..      POP      {r3-r7,pc}
        0x00000882:    6808        .h      LDR      r0,[r1,#0]
        0x00000884:    460e        .F      MOV      r6,r1
        0x00000886:    19c0        ..      ADDS     r0,r0,r7
        0x00000888:    6008        .`      STR      r0,[r1,#0]
        0x0000088a:    4669        iF      MOV      r1,sp
        0x0000088c:    480c        .H      LDR      r0,[pc,#48] ; [0x8c0] = 0x300004
        0x0000088e:    f7ffffa5    ....    BL       FMC_Read_User ; 0x7dc
        0x00000892:    490c        .I      LDR      r1,[pc,#48] ; [0x8c4] = 0xffe00
        0x00000894:    9800        ..      LDR      r0,[sp,#0]
        0x00000896:    4008        .@      ANDS     r0,r0,r1
        0x00000898:    9000        ..      STR      r0,[sp,#0]
        0x0000089a:    6831        1h      LDR      r1,[r6,#0]
        0x0000089c:    19ca        ..      ADDS     r2,r1,r7
        0x0000089e:    4290        .B      CMP      r0,r2
        0x000008a0:    d900        ..      BLS      0x8a4 ; GetDataFlashInfo + 88
        0x000008a2:    9100        ..      STR      r1,[sp,#0]
        0x000008a4:    9800        ..      LDR      r0,[sp,#0]
        0x000008a6:    6028        (`      STR      r0,[r5,#0]
        0x000008a8:    6830        0h      LDR      r0,[r6,#0]
        0x000008aa:    9900        ..      LDR      r1,[sp,#0]
        0x000008ac:    1a40        @.      SUBS     r0,r0,r1
        0x000008ae:    6020         `      STR      r0,[r4,#0]
        0x000008b0:    6831        1h      LDR      r1,[r6,#0]
        0x000008b2:    1a08        ..      SUBS     r0,r1,r0
        0x000008b4:    6030        0`      STR      r0,[r6,#0]
        0x000008b6:    bdf8        ..      POP      {r3-r7,pc}
    $d
        0x000008b8:    00001000    ....    DCD    4096
        0x000008bc:    20000068    h..     DCD    536871016
        0x000008c0:    00300004    ..0.    DCD    3145732
        0x000008c4:    000ffe00    ....    DCD    1048064
    $t
    i.Hard_Fault_Handler
    Hard_Fault_Handler
    __tagsym$$used
        0x000008c8:    4604        .F      MOV      r4,r0
        0x000008ca:    a003        ..      ADR      r0,{pc}+0xe ; 0x8d8
        0x000008cc:    f000fc98    ....    BL       __0printf$8 ; 0x1200
        0x000008d0:    4620         F      MOV      r0,r4
        0x000008d2:    f001f9d3    ....    BL       stackDump ; 0x1c7c
        0x000008d6:    e7fe        ..      B        0x8d6 ; Hard_Fault_Handler + 14
    $d
        0x000008d8:    48206e49    In H    DCD    1210084937
        0x000008dc:    20647261    ard     DCD    543453793
        0x000008e0:    6c756146    Faul    DCD    1819631942
        0x000008e4:    61482074    t Ha    DCD    1632116852
        0x000008e8:    656c646e    ndle    DCD    1701602414
        0x000008ec:    00000a72    r...    DCD    2674
    $t
    i.IAPSystemReboot_RST
    IAPSystemReboot_RST
        0x000008f0:    b5f8        ..      PUSH     {r3-r7,lr}
        0x000008f2:    4a17        .J      LDR      r2,[pc,#92] ; [0x950] = 0x40150000
        0x000008f4:    460c        .F      MOV      r4,r1
        0x000008f6:    4605        .F      MOV      r5,r0
        0x000008f8:    6993        .i      LDR      r3,[r2,#0x18]
        0x000008fa:    00d8        ..      LSLS     r0,r3,#3
        0x000008fc:    d5fc        ..      BPL      0x8f8 ; IAPSystemReboot_RST + 8
        0x000008fe:    f000fa0d    ....    BL       SYS_UnlockReg ; 0xd1c
        0x00000902:    f7ffff53    ..S.    BL       FMC_Open ; 0x7ac
        0x00000906:    4e13        .N      LDR      r6,[pc,#76] ; [0x954] = 0x5000c000
        0x00000908:    2702        .'      MOVS     r7,#2
        0x0000090a:    2d00        .-      CMP      r5,#0
        0x0000090c:    d002        ..      BEQ      0x914 ; IAPSystemReboot_RST + 36
        0x0000090e:    2d01        .-      CMP      r5,#1
        0x00000910:    d10f        ..      BNE      0x932 ; IAPSystemReboot_RST + 66
        0x00000912:    e004        ..      B        0x91e ; IAPSystemReboot_RST + 46
        0x00000914:    2001        .       MOVS     r0,#1
        0x00000916:    f3808810    ....    MSR      PRIMASK,r0
        0x0000091a:    2000        .       MOVS     r0,#0
        0x0000091c:    e004        ..      B        0x928 ; IAPSystemReboot_RST + 56
        0x0000091e:    2001        .       MOVS     r0,#1
        0x00000920:    f3808810    ....    MSR      PRIMASK,r0
        0x00000924:    2003        .       MOVS     r0,#3
        0x00000926:    0300        ..      LSLS     r0,r0,#12
        0x00000928:    f7ffff6e    ..n.    BL       FMC_SetVectorPageAddr ; 0x808
        0x0000092c:    6830        0h      LDR      r0,[r6,#0]
        0x0000092e:    43b8        .C      BICS     r0,r0,r7
        0x00000930:    6030        0`      STR      r0,[r6,#0]
        0x00000932:    2c00        .,      CMP      r4,#0
        0x00000934:    d006        ..      BEQ      0x944 ; IAPSystemReboot_RST + 84
        0x00000936:    2c01        .,      CMP      r4,#1
        0x00000938:    d006        ..      BEQ      0x948 ; IAPSystemReboot_RST + 88
        0x0000093a:    2c02        .,      CMP      r4,#2
        0x0000093c:    d101        ..      BNE      0x942 ; IAPSystemReboot_RST + 82
        0x0000093e:    f000f9c8    ....    BL       SYS_ResetChip ; 0xcd2
        0x00000942:    bdf8        ..      POP      {r3-r7,pc}
        0x00000944:    f000f812    ....    BL       NVIC_SystemReset ; 0x96c
        0x00000948:    f000f9bc    ....    BL       SYS_ResetCPU ; 0xcc4
        0x0000094c:    bdf8        ..      POP      {r3-r7,pc}
    $d
        0x0000094e:    0000        ..      DCW    0
        0x00000950:    40150000    ...@    DCD    1075118080
        0x00000954:    5000c000    ...P    DCD    1342226432
    $t
    i.NVIC_EnableIRQ
    NVIC_EnableIRQ
        0x00000958:    06c1        ..      LSLS     r1,r0,#27
        0x0000095a:    0ec9        ..      LSRS     r1,r1,#27
        0x0000095c:    2001        .       MOVS     r0,#1
        0x0000095e:    4088        .@      LSLS     r0,r0,r1
        0x00000960:    4901        .I      LDR      r1,[pc,#4] ; [0x968] = 0xe000e100
        0x00000962:    6008        .`      STR      r0,[r1,#0]
        0x00000964:    4770        pG      BX       lr
    $d
        0x00000966:    0000        ..      DCW    0
        0x00000968:    e000e100    ....    DCD    3758153984
    $t
    i.NVIC_SystemReset
    NVIC_SystemReset
        0x0000096c:    f3bf8f4f    ..O.    DSB      
        0x00000970:    4903        .I      LDR      r1,[pc,#12] ; [0x980] = 0xe000ed00
        0x00000972:    4802        .H      LDR      r0,[pc,#8] ; [0x97c] = 0x5fa0004
        0x00000974:    60c8        .`      STR      r0,[r1,#0xc]
        0x00000976:    f3bf8f4f    ..O.    DSB      
        0x0000097a:    e7fe        ..      B        0x97a ; NVIC_SystemReset + 14
    $d
        0x0000097c:    05fa0004    ....    DCD    100270084
        0x00000980:    e000ed00    ....    DCD    3758157056
    $t
    i.ParseCmd
    ParseCmd
        0x00000984:    b5f3        ..      PUSH     {r0,r1,r4-r7,lr}
        0x00000986:    b083        ..      SUB      sp,sp,#0xc
        0x00000988:    9f03        ..      LDR      r7,[sp,#0xc]
        0x0000098a:    4d8b        .M      LDR      r5,[pc,#556] ; [0xbb8] = 0x20000478
        0x0000098c:    9e04        ..      LDR      r6,[sp,#0x10]
        0x0000098e:    683c        <h      LDR      r4,[r7,#0]
        0x00000990:    2000        .       MOVS     r0,#0
        0x00000992:    6068        h`      STR      r0,[r5,#4]
        0x00000994:    462a        *F      MOV      r2,r5
        0x00000996:    3208        .2      ADDS     r2,r2,#8
        0x00000998:    2003        .       MOVS     r0,#3
        0x0000099a:    4988        .I      LDR      r1,[pc,#544] ; [0xbbc] = 0x300008
        0x0000099c:    0500        ..      LSLS     r0,r0,#20
        0x0000099e:    3e08        .>      SUBS     r6,r6,#8
        0x000009a0:    3708        .7      ADDS     r7,r7,#8
        0x000009a2:    9200        ..      STR      r2,[sp,#0]
        0x000009a4:    f000f922    ..".    BL       ReadData ; 0xbec
        0x000009a8:    68a8        .h      LDR      r0,[r5,#8]
        0x000009aa:    2102        .!      MOVS     r1,#2
        0x000009ac:    9001        ..      STR      r0,[sp,#4]
        0x000009ae:    4008        .@      ANDS     r0,r0,r1
        0x000009b0:    9002        ..      STR      r0,[sp,#8]
        0x000009b2:    2ca4        .,      CMP      r4,#0xa4
        0x000009b4:    d01a        ..      BEQ      0x9ec ; ParseCmd + 104
        0x000009b6:    2c00        .,      CMP      r4,#0
        0x000009b8:    d074        t.      BEQ      0xaa4 ; ParseCmd + 288
        0x000009ba:    2cff        .,      CMP      r4,#0xff
        0x000009bc:    d079        y.      BEQ      0xab2 ; ParseCmd + 302
        0x000009be:    4880        .H      LDR      r0,[pc,#512] ; [0xbc0] = 0x20000048
        0x000009c0:    2ca6        .,      CMP      r4,#0xa6
        0x000009c2:    6184        .a      STR      r4,[r0,#0x18]
        0x000009c4:    d016        ..      BEQ      0x9f4 ; ParseCmd + 112
        0x000009c6:    2cb1        .,      CMP      r4,#0xb1
        0x000009c8:    d017        ..      BEQ      0x9fa ; ParseCmd + 118
        0x000009ca:    2cab        .,      CMP      r4,#0xab
        0x000009cc:    d01a        ..      BEQ      0xa04 ; ParseCmd + 128
        0x000009ce:    2cac        .,      CMP      r4,#0xac
        0x000009d0:    d018        ..      BEQ      0xa04 ; ParseCmd + 128
        0x000009d2:    2cad        .,      CMP      r4,#0xad
        0x000009d4:    d016        ..      BEQ      0xa04 ; ParseCmd + 128
        0x000009d6:    2cae        .,      CMP      r4,#0xae
        0x000009d8:    d01c        ..      BEQ      0xa14 ; ParseCmd + 144
        0x000009da:    2caf        .,      CMP      r4,#0xaf
        0x000009dc:    d01e        ..      BEQ      0xa1c ; ParseCmd + 152
        0x000009de:    2ca0        .,      CMP      r4,#0xa0
        0x000009e0:    d01f        ..      BEQ      0xa22 ; ParseCmd + 158
        0x000009e2:    2ca3        .,      CMP      r4,#0xa3
        0x000009e4:    d01d        ..      BEQ      0xa22 ; ParseCmd + 158
        0x000009e6:    2cca        .,      CMP      r4,#0xca
        0x000009e8:    d03d        =.      BEQ      0xa66 ; ParseCmd + 226
        0x000009ea:    e033        3.      B        0xa54 ; ParseCmd + 208
        0x000009ec:    6839        9h      LDR      r1,[r7,#0]
        0x000009ee:    4874        tH      LDR      r0,[pc,#464] ; [0xbc0] = 0x20000048
        0x000009f0:    6141        Aa      STR      r1,[r0,#0x14]
        0x000009f2:    e7e4        ..      B        0x9be ; ParseCmd + 58
        0x000009f4:    2031        1       MOVS     r0,#0x31
        0x000009f6:    7228        (r      STRB     r0,[r5,#8]
        0x000009f8:    e054        T.      B        0xaa4 ; ParseCmd + 288
        0x000009fa:    2005        .       MOVS     r0,#5
        0x000009fc:    0700        ..      LSLS     r0,r0,#28
        0x000009fe:    6800        .h      LDR      r0,[r0,#0]
        0x00000a00:    60a8        .`      STR      r0,[r5,#8]
        0x00000a02:    e0cc        ..      B        0xb9e ; ParseCmd + 538
        0x00000a04:    20bb        .       MOVS     r0,#0xbb
        0x00000a06:    f001fa29    ..).    BL       write_magic_tag ; 0x1e5c
        0x00000a0a:    2101        .!      MOVS     r1,#1
        0x00000a0c:    2000        .       MOVS     r0,#0
        0x00000a0e:    f7ffff6f    ..o.    BL       IAPSystemReboot_RST ; 0x8f0
        0x00000a12:    e7fe        ..      B        0xa12 ; ParseCmd + 142
        0x00000a14:    496a        jI      LDR      r1,[pc,#424] ; [0xbc0] = 0x20000048
        0x00000a16:    2001        .       MOVS     r0,#1
        0x00000a18:    6148        Ha      STR      r0,[r1,#0x14]
        0x00000a1a:    e0c0        ..      B        0xb9e ; ParseCmd + 538
        0x00000a1c:    2000        .       MOVS     r0,#0
        0x00000a1e:    b005        ..      ADD      sp,sp,#0x14
        0x00000a20:    bdf0        ..      POP      {r4-r7,pc}
        0x00000a22:    4867        gH      LDR      r0,[pc,#412] ; [0xbc0] = 0x20000048
        0x00000a24:    6a01        .j      LDR      r1,[r0,#0x20]
        0x00000a26:    2003        .       MOVS     r0,#3
        0x00000a28:    0300        ..      LSLS     r0,r0,#12
        0x00000a2a:    f7fffe9d    ....    BL       EraseAP ; 0x768
        0x00000a2e:    2ca3        .,      CMP      r4,#0xa3
        0x00000a30:    d10d        ..      BNE      0xa4e ; ParseCmd + 202
        0x00000a32:    4963        cI      LDR      r1,[pc,#396] ; [0xbc0] = 0x20000048
        0x00000a34:    6a48        Hj      LDR      r0,[r1,#0x24]
        0x00000a36:    6a89        .j      LDR      r1,[r1,#0x28]
        0x00000a38:    1841        A.      ADDS     r1,r0,r1
        0x00000a3a:    f7fffe95    ....    BL       EraseAP ; 0x768
        0x00000a3e:    9801        ..      LDR      r0,[sp,#4]
        0x00000a40:    2102        .!      MOVS     r1,#2
        0x00000a42:    4308        .C      ORRS     r0,r0,r1
        0x00000a44:    60a8        .`      STR      r0,[r5,#8]
        0x00000a46:    2100        .!      MOVS     r1,#0
        0x00000a48:    9800        ..      LDR      r0,[sp,#0]
        0x00000a4a:    f000fba5    ....    BL       UpdateConfig ; 0x1198
        0x00000a4e:    495c        \I      LDR      r1,[pc,#368] ; [0xbc0] = 0x20000048
        0x00000a50:    2001        .       MOVS     r0,#1
        0x00000a52:    61c8        .a      STR      r0,[r1,#0x1c]
        0x00000a54:    2ca0        .,      CMP      r4,#0xa0
        0x00000a56:    d019        ..      BEQ      0xa8c ; ParseCmd + 264
        0x00000a58:    2cc3        .,      CMP      r4,#0xc3
        0x00000a5a:    d00d        ..      BEQ      0xa78 ; ParseCmd + 244
        0x00000a5c:    2ca1        .,      CMP      r4,#0xa1
        0x00000a5e:    d029        ).      BEQ      0xab4 ; ParseCmd + 304
        0x00000a60:    2cff        .,      CMP      r4,#0xff
        0x00000a62:    d036        6.      BEQ      0xad2 ; ParseCmd + 334
        0x00000a64:    e01e        ..      B        0xaa4 ; ParseCmd + 288
        0x00000a66:    4857        WH      LDR      r0,[pc,#348] ; [0xbc4] = 0x5000c000
        0x00000a68:    6800        .h      LDR      r0,[r0,#0]
        0x00000a6a:    0780        ..      LSLS     r0,r0,#30
        0x00000a6c:    d501        ..      BPL      0xa72 ; ParseCmd + 238
        0x00000a6e:    2002        .       MOVS     r0,#2
        0x00000a70:    e000        ..      B        0xa74 ; ParseCmd + 240
        0x00000a72:    2001        .       MOVS     r0,#1
        0x00000a74:    60a8        .`      STR      r0,[r5,#8]
        0x00000a76:    e015        ..      B        0xaa4 ; ParseCmd + 288
        0x00000a78:    4951        QI      LDR      r1,[pc,#324] ; [0xbc0] = 0x20000048
        0x00000a7a:    6a48        Hj      LDR      r0,[r1,#0x24]
        0x00000a7c:    6008        .`      STR      r0,[r1,#0]
        0x00000a7e:    6a89        .j      LDR      r1,[r1,#0x28]
        0x00000a80:    2900        .)      CMP      r1,#0
        0x00000a82:    d015        ..      BEQ      0xab0 ; ParseCmd + 300
        0x00000a84:    1841        A.      ADDS     r1,r0,r1
        0x00000a86:    f7fffe6f    ..o.    BL       EraseAP ; 0x768
        0x00000a8a:    e003        ..      B        0xa94 ; ParseCmd + 272
        0x00000a8c:    2003        .       MOVS     r0,#3
        0x00000a8e:    494c        LI      LDR      r1,[pc,#304] ; [0xbc0] = 0x20000048
        0x00000a90:    0300        ..      LSLS     r0,r0,#12
        0x00000a92:    6008        .`      STR      r0,[r1,#0]
        0x00000a94:    6878        xh      LDR      r0,[r7,#4]
        0x00000a96:    494a        JI      LDR      r1,[pc,#296] ; [0xbc0] = 0x20000048
        0x00000a98:    3e08        .>      SUBS     r6,r6,#8
        0x00000a9a:    6088        .`      STR      r0,[r1,#8]
        0x00000a9c:    680a        .h      LDR      r2,[r1,#0]
        0x00000a9e:    604a        J`      STR      r2,[r1,#4]
        0x00000aa0:    3708        .7      ADDS     r7,r7,#8
        0x00000aa2:    60c8        .`      STR      r0,[r1,#0xc]
        0x00000aa4:    4c46        FL      LDR      r4,[pc,#280] ; [0xbc0] = 0x20000048
        0x00000aa6:    69a0        .i      LDR      r0,[r4,#0x18]
        0x00000aa8:    28a0        .(      CMP      r0,#0xa0
        0x00000aaa:    d03c        <.      BEQ      0xb26 ; ParseCmd + 418
        0x00000aac:    28c3        .(      CMP      r0,#0xc3
        0x00000aae:    d03a        :.      BEQ      0xb26 ; ParseCmd + 418
        0x00000ab0:    e075        u.      B        0xb9e ; ParseCmd + 538
        0x00000ab2:    e00e        ..      B        0xad2 ; ParseCmd + 334
        0x00000ab4:    4842        BH      LDR      r0,[pc,#264] ; [0xbc0] = 0x20000048
        0x00000ab6:    9902        ..      LDR      r1,[sp,#8]
        0x00000ab8:    69c0        .i      LDR      r0,[r0,#0x1c]
        0x00000aba:    4301        .C      ORRS     r1,r1,r0
        0x00000abc:    d06f        o.      BEQ      0xb9e ; ParseCmd + 538
        0x00000abe:    4638        8F      MOV      r0,r7
        0x00000ac0:    9900        ..      LDR      r1,[sp,#0]
        0x00000ac2:    f000fb69    ..i.    BL       UpdateConfig ; 0x1198
        0x00000ac6:    493e        >I      LDR      r1,[pc,#248] ; [0xbc0] = 0x20000048
        0x00000ac8:    3128        (1      ADDS     r1,r1,#0x28
        0x00000aca:    1f08        ..      SUBS     r0,r1,#4
        0x00000acc:    f7fffebe    ....    BL       GetDataFlashInfo ; 0x84c
        0x00000ad0:    e065        e.      B        0xb9e ; ParseCmd + 538
        0x00000ad2:    4c3b        ;L      LDR      r4,[pc,#236] ; [0xbc0] = 0x20000048
        0x00000ad4:    4e3c        <N      LDR      r6,[pc,#240] ; [0xbc8] = 0xffe00
        0x00000ad6:    6821        !h      LDR      r1,[r4,#0]
        0x00000ad8:    6920         i      LDR      r0,[r4,#0x10]
        0x00000ada:    1a09        ..      SUBS     r1,r1,r0
        0x00000adc:    6021        !`      STR      r1,[r4,#0]
        0x00000ade:    68a2        .h      LDR      r2,[r4,#8]
        0x00000ae0:    1810        ..      ADDS     r0,r2,r0
        0x00000ae2:    60a0        .`      STR      r0,[r4,#8]
        0x00000ae4:    4a34        4J      LDR      r2,[pc,#208] ; [0xbb8] = 0x20000478
        0x00000ae6:    4608        .F      MOV      r0,r1
        0x00000ae8:    4030        0@      ANDS     r0,r0,r6
        0x00000aea:    3240        @2      ADDS     r2,r2,#0x40
        0x00000aec:    f000f87e    ..~.    BL       ReadData ; 0xbec
        0x00000af0:    6820         h      LDR      r0,[r4,#0]
        0x00000af2:    4030        0@      ANDS     r0,r0,r6
        0x00000af4:    f7fffe46    ..F.    BL       FMC_Erase_User ; 0x784
        0x00000af8:    6820         h      LDR      r0,[r4,#0]
        0x00000afa:    4a2f        /J      LDR      r2,[pc,#188] ; [0xbb8] = 0x20000478
        0x00000afc:    4601        .F      MOV      r1,r0
        0x00000afe:    4030        0@      ANDS     r0,r0,r6
        0x00000b00:    3240        @2      ADDS     r2,r2,#0x40
        0x00000b02:    f000fb6f    ..o.    BL       WriteData ; 0x11e4
        0x00000b06:    6820         h      LDR      r0,[r4,#0]
        0x00000b08:    2101        .!      MOVS     r1,#1
        0x00000b0a:    6923        #i      LDR      r3,[r4,#0x10]
        0x00000b0c:    05c2        ..      LSLS     r2,r0,#23
        0x00000b0e:    0249        I.      LSLS     r1,r1,#9
        0x00000b10:    0dd2        ..      LSRS     r2,r2,#23
        0x00000b12:    1ac9        ..      SUBS     r1,r1,r3
        0x00000b14:    428a        .B      CMP      r2,r1
        0x00000b16:    d342        B.      BCC      0xb9e ; ParseCmd + 538
        0x00000b18:    4030        0@      ANDS     r0,r0,r6
        0x00000b1a:    30ff        .0      ADDS     r0,r0,#0xff
        0x00000b1c:    30ff        .0      ADDS     r0,r0,#0xff
        0x00000b1e:    3002        .0      ADDS     r0,#2
        0x00000b20:    f7fffe30    ..0.    BL       FMC_Erase_User ; 0x784
        0x00000b24:    e03b        ;.      B        0xb9e ; ParseCmd + 538
        0x00000b26:    68a0        .h      LDR      r0,[r4,#8]
        0x00000b28:    42b0        .B      CMP      r0,r6
        0x00000b2a:    d200        ..      BCS      0xb2e ; ParseCmd + 426
        0x00000b2c:    4606        .F      MOV      r6,r0
        0x00000b2e:    1b80        ..      SUBS     r0,r0,r6
        0x00000b30:    60a0        .`      STR      r0,[r4,#8]
        0x00000b32:    6820         h      LDR      r0,[r4,#0]
        0x00000b34:    463a        :F      MOV      r2,r7
        0x00000b36:    1981        ..      ADDS     r1,r0,r6
        0x00000b38:    f000fb54    ..T.    BL       WriteData ; 0x11e4
        0x00000b3c:    4631        1F      MOV      r1,r6
        0x00000b3e:    4638        8F      MOV      r0,r7
        0x00000b40:    f7fffb2b    ..+.    BL       __aeabi_memclr ; 0x19a
        0x00000b44:    6820         h      LDR      r0,[r4,#0]
        0x00000b46:    463a        :F      MOV      r2,r7
        0x00000b48:    1981        ..      ADDS     r1,r0,r6
        0x00000b4a:    f000f84f    ..O.    BL       ReadData ; 0xbec
        0x00000b4e:    6820         h      LDR      r0,[r4,#0]
        0x00000b50:    6126        &a      STR      r6,[r4,#0x10]
        0x00000b52:    1980        ..      ADDS     r0,r0,r6
        0x00000b54:    6020         `      STR      r0,[r4,#0]
        0x00000b56:    68a0        .h      LDR      r0,[r4,#8]
        0x00000b58:    2800        .(      CMP      r0,#0
        0x00000b5a:    d120         .      BNE      0xb9e ; ParseCmd + 538
        0x00000b5c:    6860        `h      LDR      r0,[r4,#4]
        0x00000b5e:    9000        ..      STR      r0,[sp,#0]
        0x00000b60:    2600        .&      MOVS     r6,#0
        0x00000b62:    68e7        .h      LDR      r7,[r4,#0xc]
        0x00000b64:    4634        4F      MOV      r4,r6
        0x00000b66:    e017        ..      B        0xb98 ; ParseCmd + 532
        0x00000b68:    9800        ..      LDR      r0,[sp,#0]
        0x00000b6a:    4a13        .J      LDR      r2,[pc,#76] ; [0xbb8] = 0x20000478
        0x00000b6c:    1900        ..      ADDS     r0,r0,r4
        0x00000b6e:    1dc1        ..      ADDS     r1,r0,#7
        0x00000b70:    31ff        .1      ADDS     r1,r1,#0xff
        0x00000b72:    31fa        .1      ADDS     r1,r1,#0xfa
        0x00000b74:    3240        @2      ADDS     r2,r2,#0x40
        0x00000b76:    f000f839    ..9.    BL       ReadData ; 0xbec
        0x00000b7a:    2101        .!      MOVS     r1,#1
        0x00000b7c:    1b38        8.      SUBS     r0,r7,r4
        0x00000b7e:    0249        I.      LSLS     r1,r1,#9
        0x00000b80:    4288        .B      CMP      r0,r1
        0x00000b82:    d200        ..      BCS      0xb86 ; ParseCmd + 514
        0x00000b84:    4601        .F      MOV      r1,r0
        0x00000b86:    480c        .H      LDR      r0,[pc,#48] ; [0xbb8] = 0x20000478
        0x00000b88:    3040        @0      ADDS     r0,r0,#0x40
        0x00000b8a:    f7fffd57    ..W.    BL       Checksum ; 0x63c
        0x00000b8e:    1980        ..      ADDS     r0,r0,r6
        0x00000b90:    34ff        .4      ADDS     r4,r4,#0xff
        0x00000b92:    34ff        .4      ADDS     r4,r4,#0xff
        0x00000b94:    b286        ..      UXTH     r6,r0
        0x00000b96:    3402        .4      ADDS     r4,#2
        0x00000b98:    42bc        .B      CMP      r4,r7
        0x00000b9a:    d3e5        ..      BCC      0xb68 ; ParseCmd + 484
        0x00000b9c:    812e        ..      STRH     r6,[r5,#8]
        0x00000b9e:    9904        ..      LDR      r1,[sp,#0x10]
        0x00000ba0:    9803        ..      LDR      r0,[sp,#0xc]
        0x00000ba2:    f7fffd4b    ..K.    BL       Checksum ; 0x63c
        0x00000ba6:    8028        (.      STRH     r0,[r5,#0]
        0x00000ba8:    4905        .I      LDR      r1,[pc,#20] ; [0xbc0] = 0x20000048
        0x00000baa:    6948        Hi      LDR      r0,[r1,#0x14]
        0x00000bac:    1c40        @.      ADDS     r0,r0,#1
        0x00000bae:    6068        h`      STR      r0,[r5,#4]
        0x00000bb0:    1c40        @.      ADDS     r0,r0,#1
        0x00000bb2:    6148        Ha      STR      r0,[r1,#0x14]
        0x00000bb4:    e732        2.      B        0xa1c ; ParseCmd + 152
    $d
        0x00000bb6:    0000        ..      DCW    0
        0x00000bb8:    20000478    x..     DCD    536872056
        0x00000bbc:    00300008    ..0.    DCD    3145736
        0x00000bc0:    20000048    H..     DCD    536870984
        0x00000bc4:    5000c000    ...P    DCD    1342226432
        0x00000bc8:    000ffe00    ....    DCD    1048064
    $t
    i.PutString
    PutString
        0x00000bcc:    4905        .I      LDR      r1,[pc,#20] ; [0xbe4] = 0x40050000
        0x00000bce:    4a06        .J      LDR      r2,[pc,#24] ; [0xbe8] = 0x20000478
        0x00000bd0:    2000        .       MOVS     r0,#0
        0x00000bd2:    698b        .i      LDR      r3,[r1,#0x18]
        0x00000bd4:    021b        ..      LSLS     r3,r3,#8
        0x00000bd6:    d4fc        ..      BMI      0xbd2 ; PutString + 6
        0x00000bd8:    5c13        .\      LDRB     r3,[r2,r0]
        0x00000bda:    600b        .`      STR      r3,[r1,#0]
        0x00000bdc:    1c40        @.      ADDS     r0,r0,#1
        0x00000bde:    2840        @(      CMP      r0,#0x40
        0x00000be0:    d3f7        ..      BCC      0xbd2 ; PutString + 6
        0x00000be2:    4770        pG      BX       lr
    $d
        0x00000be4:    40050000    ...@    DCD    1074069504
        0x00000be8:    20000478    x..     DCD    536872056
    $t
    i.ReadData
    ReadData
        0x00000bec:    b570        p.      PUSH     {r4-r6,lr}
        0x00000bee:    4615        .F      MOV      r5,r2
        0x00000bf0:    460e        .F      MOV      r6,r1
        0x00000bf2:    4604        .F      MOV      r4,r0
        0x00000bf4:    e005        ..      B        0xc02 ; ReadData + 22
        0x00000bf6:    4629        )F      MOV      r1,r5
        0x00000bf8:    4620         F      MOV      r0,r4
        0x00000bfa:    f7fffdef    ....    BL       FMC_Read_User ; 0x7dc
        0x00000bfe:    1d24        $.      ADDS     r4,r4,#4
        0x00000c00:    1d2d        -.      ADDS     r5,r5,#4
        0x00000c02:    42b4        .B      CMP      r4,r6
        0x00000c04:    d3f7        ..      BCC      0xbf6 ; ReadData + 10
        0x00000c06:    bd70        p.      POP      {r4-r6,pc}
    i.SYS_ClearResetSrc
    SYS_ClearResetSrc
        0x00000c08:    2105        .!      MOVS     r1,#5
        0x00000c0a:    0709        ..      LSLS     r1,r1,#28
        0x00000c0c:    684a        Jh      LDR      r2,[r1,#4]
        0x00000c0e:    4302        .C      ORRS     r2,r2,r0
        0x00000c10:    604a        J`      STR      r2,[r1,#4]
        0x00000c12:    4770        pG      BX       lr
    i.SYS_GetResetSrc
    SYS_GetResetSrc
        0x00000c14:    2005        .       MOVS     r0,#5
        0x00000c16:    0700        ..      LSLS     r0,r0,#28
        0x00000c18:    6840        @h      LDR      r0,[r0,#4]
        0x00000c1a:    4770        pG      BX       lr
    i.SYS_Init
    SYS_Init
        0x00000c1c:    b570        p.      PUSH     {r4-r6,lr}
        0x00000c1e:    f000f86d    ..m.    BL       SYS_UnlockReg ; 0xcfc
        0x00000c22:    2004        .       MOVS     r0,#4
        0x00000c24:    f7fffc0c    ....    BL       CLK_EnableXtalRC ; 0x440
        0x00000c28:    2010        .       MOVS     r0,#0x10
        0x00000c2a:    f7fffcf1    ....    BL       CLK_WaitClockReady ; 0x610
        0x00000c2e:    2100        .!      MOVS     r1,#0
        0x00000c30:    2007        .       MOVS     r0,#7
        0x00000c32:    f7fffc99    ....    BL       CLK_SetHCLK ; 0x568
        0x00000c36:    481f        .H      LDR      r0,[pc,#124] ; [0xcb4] = 0x2faf080
        0x00000c38:    f7fffc58    ..X.    BL       CLK_SetCoreClock ; 0x4ec
        0x00000c3c:    4d1e        .M      LDR      r5,[pc,#120] ; [0xcb8] = 0x57803d10
        0x00000c3e:    4628        (F      MOV      r0,r5
        0x00000c40:    f7fffb1a    ....    BL       CLK_EnableModuleClock ; 0x278
        0x00000c44:    2403        .$      MOVS     r4,#3
        0x00000c46:    0624        $.      LSLS     r4,r4,#24
        0x00000c48:    2200        ."      MOVS     r2,#0
        0x00000c4a:    4621        !F      MOV      r1,r4
        0x00000c4c:    4628        (F      MOV      r0,r5
        0x00000c4e:    f7fffcaf    ....    BL       CLK_SetModuleClock ; 0x5b0
        0x00000c52:    1c6d        m.      ADDS     r5,r5,#1
        0x00000c54:    4628        (F      MOV      r0,r5
        0x00000c56:    f7fffb0f    ....    BL       CLK_EnableModuleClock ; 0x278
        0x00000c5a:    2200        ."      MOVS     r2,#0
        0x00000c5c:    4621        !F      MOV      r1,r4
        0x00000c5e:    4628        (F      MOV      r0,r5
        0x00000c60:    f7fffca6    ....    BL       CLK_SetModuleClock ; 0x5b0
        0x00000c64:    4c15        .L      LDR      r4,[pc,#84] ; [0xcbc] = 0x5e800002
        0x00000c66:    4620         F      MOV      r0,r4
        0x00000c68:    f7fffb06    ....    BL       CLK_EnableModuleClock ; 0x278
        0x00000c6c:    2107        .!      MOVS     r1,#7
        0x00000c6e:    2200        ."      MOVS     r2,#0
        0x00000c70:    0209        ..      LSLS     r1,r1,#8
        0x00000c72:    4620         F      MOV      r0,r4
        0x00000c74:    f7fffc9c    ....    BL       CLK_SetModuleClock ; 0x5b0
        0x00000c78:    4c11        .L      LDR      r4,[pc,#68] ; [0xcc0] = 0x5ec00003
        0x00000c7a:    4620         F      MOV      r0,r4
        0x00000c7c:    f7fffafc    ....    BL       CLK_EnableModuleClock ; 0x278
        0x00000c80:    2107        .!      MOVS     r1,#7
        0x00000c82:    2200        ."      MOVS     r2,#0
        0x00000c84:    0309        ..      LSLS     r1,r1,#12
        0x00000c86:    4620         F      MOV      r0,r4
        0x00000c88:    f7fffc92    ....    BL       CLK_SetModuleClock ; 0x5b0
        0x00000c8c:    2005        .       MOVS     r0,#5
        0x00000c8e:    0700        ..      LSLS     r0,r0,#28
        0x00000c90:    6b41        Ak      LDR      r1,[r0,#0x34]
        0x00000c92:    0889        ..      LSRS     r1,r1,#2
        0x00000c94:    0089        ..      LSLS     r1,r1,#2
        0x00000c96:    6341        Ac      STR      r1,[r0,#0x34]
        0x00000c98:    6b41        Ak      LDR      r1,[r0,#0x34]
        0x00000c9a:    2203        ."      MOVS     r2,#3
        0x00000c9c:    4311        .C      ORRS     r1,r1,r2
        0x00000c9e:    6341        Ac      STR      r1,[r0,#0x34]
        0x00000ca0:    6b42        Bk      LDR      r2,[r0,#0x34]
        0x00000ca2:    2130        0!      MOVS     r1,#0x30
        0x00000ca4:    438a        .C      BICS     r2,r2,r1
        0x00000ca6:    6342        Bc      STR      r2,[r0,#0x34]
        0x00000ca8:    6b42        Bk      LDR      r2,[r0,#0x34]
        0x00000caa:    430a        .C      ORRS     r2,r2,r1
        0x00000cac:    6342        Bc      STR      r2,[r0,#0x34]
        0x00000cae:    f000f877    ..w.    BL       SystemCoreClockUpdate ; 0xda0
        0x00000cb2:    bd70        p.      POP      {r4-r6,pc}
    $d
        0x00000cb4:    02faf080    ....    DCD    50000000
        0x00000cb8:    57803d10    .=.W    DCD    1468022032
        0x00000cbc:    5e800002    ...^    DCD    1585446914
        0x00000cc0:    5ec00003    ...^    DCD    1589641219
    $t
    i.SYS_ResetCPU
    SYS_ResetCPU
        0x00000cc4:    2005        .       MOVS     r0,#5
        0x00000cc6:    0700        ..      LSLS     r0,r0,#28
        0x00000cc8:    6881        .h      LDR      r1,[r0,#8]
        0x00000cca:    2202        ."      MOVS     r2,#2
        0x00000ccc:    4311        .C      ORRS     r1,r1,r2
        0x00000cce:    6081        .`      STR      r1,[r0,#8]
        0x00000cd0:    4770        pG      BX       lr
    i.SYS_ResetChip
    SYS_ResetChip
        0x00000cd2:    2005        .       MOVS     r0,#5
        0x00000cd4:    0700        ..      LSLS     r0,r0,#28
        0x00000cd6:    6881        .h      LDR      r1,[r0,#8]
        0x00000cd8:    2201        ."      MOVS     r2,#1
        0x00000cda:    4311        .C      ORRS     r1,r1,r2
        0x00000cdc:    6081        .`      STR      r1,[r0,#8]
        0x00000cde:    4770        pG      BX       lr
    i.SYS_ResetModule
    SYS_ResetModule
        0x00000ce0:    2105        .!      MOVS     r1,#5
        0x00000ce2:    0e02        ..      LSRS     r2,r0,#24
        0x00000ce4:    0709        ..      LSLS     r1,r1,#28
        0x00000ce6:    1851        Q.      ADDS     r1,r2,r1
        0x00000ce8:    688b        .h      LDR      r3,[r1,#8]
        0x00000cea:    2201        ."      MOVS     r2,#1
        0x00000cec:    4082        .@      LSLS     r2,r2,r0
        0x00000cee:    4313        .C      ORRS     r3,r3,r2
        0x00000cf0:    608b        .`      STR      r3,[r1,#8]
        0x00000cf2:    6888        .h      LDR      r0,[r1,#8]
        0x00000cf4:    4390        .C      BICS     r0,r0,r2
        0x00000cf6:    6088        .`      STR      r0,[r1,#8]
        0x00000cf8:    4770        pG      BX       lr
        0x00000cfa:    0000        ..      MOVS     r0,r0
    i.SYS_UnlockReg
    SYS_UnlockReg
        0x00000cfc:    b510        ..      PUSH     {r4,lr}
        0x00000cfe:    2159        Y!      MOVS     r1,#0x59
        0x00000d00:    2316        .#      MOVS     r3,#0x16
        0x00000d02:    4805        .H      LDR      r0,[pc,#20] ; [0xd18] = 0x50000100
        0x00000d04:    2288        ."      MOVS     r2,#0x88
        0x00000d06:    e002        ..      B        0xd0e ; SYS_UnlockReg + 18
        0x00000d08:    6001        .`      STR      r1,[r0,#0]
        0x00000d0a:    6003        .`      STR      r3,[r0,#0]
        0x00000d0c:    6002        .`      STR      r2,[r0,#0]
        0x00000d0e:    6804        .h      LDR      r4,[r0,#0]
        0x00000d10:    2c01        .,      CMP      r4,#1
        0x00000d12:    d1f9        ..      BNE      0xd08 ; SYS_UnlockReg + 12
        0x00000d14:    bd10        ..      POP      {r4,pc}
    $d
        0x00000d16:    0000        ..      DCW    0
        0x00000d18:    50000100    ...P    DCD    1342177536
    $t
    i.SYS_UnlockReg
    SYS_UnlockReg
        0x00000d1c:    b510        ..      PUSH     {r4,lr}
        0x00000d1e:    2159        Y!      MOVS     r1,#0x59
        0x00000d20:    2316        .#      MOVS     r3,#0x16
        0x00000d22:    4805        .H      LDR      r0,[pc,#20] ; [0xd38] = 0x50000100
        0x00000d24:    2288        ."      MOVS     r2,#0x88
        0x00000d26:    e002        ..      B        0xd2e ; SYS_UnlockReg + 18
        0x00000d28:    6001        .`      STR      r1,[r0,#0]
        0x00000d2a:    6003        .`      STR      r3,[r0,#0]
        0x00000d2c:    6002        .`      STR      r2,[r0,#0]
        0x00000d2e:    6804        .h      LDR      r4,[r0,#0]
        0x00000d30:    2c01        .,      CMP      r4,#1
        0x00000d32:    d1f9        ..      BNE      0xd28 ; SYS_UnlockReg + 12
        0x00000d34:    bd10        ..      POP      {r4,pc}
    $d
        0x00000d36:    0000        ..      DCW    0
        0x00000d38:    50000100    ...P    DCD    1342177536
    $t
    i.SendChar_ToUART
    SendChar_ToUART
        0x00000d3c:    4906        .I      LDR      r1,[pc,#24] ; [0xd58] = 0x40150000
        0x00000d3e:    698a        .i      LDR      r2,[r1,#0x18]
        0x00000d40:    0212        ..      LSLS     r2,r2,#8
        0x00000d42:    d4fc        ..      BMI      0xd3e ; SendChar_ToUART + 2
        0x00000d44:    280a        .(      CMP      r0,#0xa
        0x00000d46:    d104        ..      BNE      0xd52 ; SendChar_ToUART + 22
        0x00000d48:    220d        ."      MOVS     r2,#0xd
        0x00000d4a:    600a        .`      STR      r2,[r1,#0]
        0x00000d4c:    698a        .i      LDR      r2,[r1,#0x18]
        0x00000d4e:    0212        ..      LSLS     r2,r2,#8
        0x00000d50:    d4fc        ..      BMI      0xd4c ; SendChar_ToUART + 16
        0x00000d52:    6008        .`      STR      r0,[r1,#0]
        0x00000d54:    4770        pG      BX       lr
    $d
        0x00000d56:    0000        ..      DCW    0
        0x00000d58:    40150000    ...@    DCD    1075118080
    $t
    i.SysTick_Handler
    SysTick_Handler
        0x00000d5c:    b510        ..      PUSH     {r4,lr}
        0x00000d5e:    f000ffe1    ....    BL       systick_counter ; 0x1d24
        0x00000d62:    4c0a        .L      LDR      r4,[pc,#40] ; [0xd8c] = 0x20000030
        0x00000d64:    68a0        .h      LDR      r0,[r4,#8]
        0x00000d66:    1c40        @.      ADDS     r0,r0,#1
        0x00000d68:    d100        ..      BNE      0xd6c ; SysTick_Handler + 16
        0x00000d6a:    60a0        .`      STR      r0,[r4,#8]
        0x00000d6c:    68a0        .h      LDR      r0,[r4,#8]
        0x00000d6e:    217d        }!      MOVS     r1,#0x7d
        0x00000d70:    00c9        ..      LSLS     r1,r1,#3
        0x00000d72:    f7fff9e3    ....    BL       __aeabi_uidiv ; 0x13c
        0x00000d76:    2900        .)      CMP      r1,#0
        0x00000d78:    d106        ..      BNE      0xd88 ; SysTick_Handler + 44
        0x00000d7a:    6962        bi      LDR      r2,[r4,#0x14]
        0x00000d7c:    4904        .I      LDR      r1,[pc,#16] ; [0xd90] = 0x1f2b
        0x00000d7e:    1c50        P.      ADDS     r0,r2,#1
        0x00000d80:    6160        `a      STR      r0,[r4,#0x14]
        0x00000d82:    a004        ..      ADR      r0,{pc}+0x12 ; 0xd94
        0x00000d84:    f000fa3c    ..<.    BL       __0printf$8 ; 0x1200
        0x00000d88:    bd10        ..      POP      {r4,pc}
    $d
        0x00000d8a:    0000        ..      DCW    0
        0x00000d8c:    20000030    0..     DCD    536870960
        0x00000d90:    00001f2b    +...    DCD    7979
        0x00000d94:    3a207325    %s :    DCD    975205157
        0x00000d98:    64342520     %4d    DCD    1681138976
        0x00000d9c:    00000a0d    ....    DCD    2573
    $t
    i.SystemCoreClockUpdate
    SystemCoreClockUpdate
        0x00000da0:    b538        8.      PUSH     {r3-r5,lr}
        0x00000da2:    a01d        ..      ADR      r0,{pc}+0x76 ; 0xe18
        0x00000da4:    6800        .h      LDR      r0,[r0,#0]
        0x00000da6:    4c1d        .L      LDR      r4,[pc,#116] ; [0xe1c] = 0x50000200
        0x00000da8:    9000        ..      STR      r0,[sp,#0]
        0x00000daa:    6a21        !j      LDR      r1,[r4,#0x20]
        0x00000dac:    1320         .      ASRS     r0,r4,#12
        0x00000dae:    4201        .B      TST      r1,r0
        0x00000db0:    d001        ..      BEQ      0xdb6 ; SystemCoreClockUpdate + 22
        0x00000db2:    2000        .       MOVS     r0,#0
        0x00000db4:    e016        ..      B        0xde4 ; SystemCoreClockUpdate + 68
        0x00000db6:    0308        ..      LSLS     r0,r1,#12
        0x00000db8:    d501        ..      BPL      0xdbe ; SystemCoreClockUpdate + 30
        0x00000dba:    4819        .H      LDR      r0,[pc,#100] ; [0xe20] = 0x1518000
        0x00000dbc:    e000        ..      B        0xdc0 ; SystemCoreClockUpdate + 32
        0x00000dbe:    4819        .H      LDR      r0,[pc,#100] ; [0xe24] = 0xb71b00
        0x00000dc0:    038a        ..      LSLS     r2,r1,#14
        0x00000dc2:    d40f        ..      BMI      0xde4 ; SystemCoreClockUpdate + 68
        0x00000dc4:    040a        ..      LSLS     r2,r1,#16
        0x00000dc6:    0f92        ..      LSRS     r2,r2,#30
        0x00000dc8:    466b        kF      MOV      r3,sp
        0x00000dca:    5c9b        .\      LDRB     r3,[r3,r2]
        0x00000dcc:    05ca        ..      LSLS     r2,r1,#23
        0x00000dce:    0489        ..      LSLS     r1,r1,#18
        0x00000dd0:    0dd2        ..      LSRS     r2,r2,#23
        0x00000dd2:    0ec9        ..      LSRS     r1,r1,#27
        0x00000dd4:    1c89        ..      ADDS     r1,r1,#2
        0x00000dd6:    0880        ..      LSRS     r0,r0,#2
        0x00000dd8:    1c92        ..      ADDS     r2,r2,#2
        0x00000dda:    4359        YC      MULS     r1,r3,r1
        0x00000ddc:    4350        PC      MULS     r0,r2,r0
        0x00000dde:    f7fff9ad    ....    BL       __aeabi_uidiv ; 0x13c
        0x00000de2:    0080        ..      LSLS     r0,r0,#2
        0x00000de4:    4d10        .M      LDR      r5,[pc,#64] ; [0xe28] = 0x20000000
        0x00000de6:    60a8        .`      STR      r0,[r5,#8]
        0x00000de8:    6921        !i      LDR      r1,[r4,#0x10]
        0x00000dea:    0749        I.      LSLS     r1,r1,#29
        0x00000dec:    0f49        I.      LSRS     r1,r1,#29
        0x00000dee:    2902        .)      CMP      r1,#2
        0x00000df0:    d003        ..      BEQ      0xdfa ; SystemCoreClockUpdate + 90
        0x00000df2:    0088        ..      LSLS     r0,r1,#2
        0x00000df4:    4629        )F      MOV      r1,r5
        0x00000df6:    310c        .1      ADDS     r1,r1,#0xc
        0x00000df8:    5808        .X      LDR      r0,[r1,r0]
        0x00000dfa:    69a1        .i      LDR      r1,[r4,#0x18]
        0x00000dfc:    0709        ..      LSLS     r1,r1,#28
        0x00000dfe:    0f09        ..      LSRS     r1,r1,#28
        0x00000e00:    1c49        I.      ADDS     r1,r1,#1
        0x00000e02:    f7fff99b    ....    BL       __aeabi_uidiv ; 0x13c
        0x00000e06:    4909        .I      LDR      r1,[pc,#36] ; [0xe2c] = 0xf4240
        0x00000e08:    6028        (`      STR      r0,[r5,#0]
        0x00000e0a:    104a        J.      ASRS     r2,r1,#1
        0x00000e0c:    1880        ..      ADDS     r0,r0,r2
        0x00000e0e:    f7fff995    ....    BL       __aeabi_uidiv ; 0x13c
        0x00000e12:    6068        h`      STR      r0,[r5,#4]
        0x00000e14:    bd38        8.      POP      {r3-r5,pc}
    $d
        0x00000e16:    0000        ..      DCW    0
        0x00000e18:    04020201    ....    DCD    67240449
        0x00000e1c:    50000200    ...P    DCD    1342177792
        0x00000e20:    01518000    ..Q.    DCD    22118400
        0x00000e24:    00b71b00    ....    DCD    12000000
        0x00000e28:    20000000    ...     DCD    536870912
        0x00000e2c:    000f4240    @B..    DCD    1000000
    $t
    i.SystemInit
    SystemInit
        0x00000e30:    4770        pG      BX       lr
        0x00000e32:    0000        ..      MOVS     r0,r0
    i.TIMER1_Init
    TIMER1_Init
        0x00000e34:    b510        ..      PUSH     {r4,lr}
        0x00000e36:    4c07        .L      LDR      r4,[pc,#28] ; [0xe54] = 0x40010020
        0x00000e38:    2201        ."      MOVS     r2,#1
        0x00000e3a:    06d1        ..      LSLS     r1,r2,#27
        0x00000e3c:    4620         F      MOV      r0,r4
        0x00000e3e:    f000f841    ..A.    BL       TIMER_Open ; 0xec4
        0x00000e42:    6821        !h      LDR      r1,[r4,#0]
        0x00000e44:    0622        ".      LSLS     r2,r4,#24
        0x00000e46:    4311        .C      ORRS     r1,r1,r2
        0x00000e48:    6021        !`      STR      r1,[r4,#0]
        0x00000e4a:    4903        .I      LDR      r1,[pc,#12] ; [0xe58] = 0xe000e100
        0x00000e4c:    1510        ..      ASRS     r0,r2,#20
        0x00000e4e:    6008        .`      STR      r0,[r1,#0]
        0x00000e50:    bd10        ..      POP      {r4,pc}
    $d
        0x00000e52:    0000        ..      DCW    0
        0x00000e54:    40010020     ..@    DCD    1073807392
        0x00000e58:    e000e100    ....    DCD    3758153984
    $t
    i.TIMER_GetModuleClock
    TIMER_GetModuleClock
        0x00000e5c:    b510        ..      PUSH     {r4,lr}
        0x00000e5e:    b088        ..      SUB      sp,sp,#0x20
        0x00000e60:    4604        .F      MOV      r4,r0
        0x00000e62:    2220         "      MOVS     r2,#0x20
        0x00000e64:    4912        .I      LDR      r1,[pc,#72] ; [0xeb0] = 0x1efc
        0x00000e66:    4668        hF      MOV      r0,sp
        0x00000e68:    f7fff97e    ..~.    BL       __aeabi_memcpy ; 0x168
        0x00000e6c:    4911        .I      LDR      r1,[pc,#68] ; [0xeb4] = 0x40010000
        0x00000e6e:    4812        .H      LDR      r0,[pc,#72] ; [0xeb8] = 0x50000200
        0x00000e70:    428c        .B      CMP      r4,r1
        0x00000e72:    d102        ..      BNE      0xe7a ; TIMER_GetModuleClock + 30
        0x00000e74:    6940        @i      LDR      r0,[r0,#0x14]
        0x00000e76:    0a00        ..      LSRS     r0,r0,#8
        0x00000e78:    e00d        ..      B        0xe96 ; TIMER_GetModuleClock + 58
        0x00000e7a:    490e        .I      LDR      r1,[pc,#56] ; [0xeb4] = 0x40010000
        0x00000e7c:    3120         1      ADDS     r1,r1,#0x20
        0x00000e7e:    428c        .B      CMP      r4,r1
        0x00000e80:    d102        ..      BNE      0xe88 ; TIMER_GetModuleClock + 44
        0x00000e82:    6940        @i      LDR      r0,[r0,#0x14]
        0x00000e84:    0b00        ..      LSRS     r0,r0,#12
        0x00000e86:    e006        ..      B        0xe96 ; TIMER_GetModuleClock + 58
        0x00000e88:    490c        .I      LDR      r1,[pc,#48] ; [0xebc] = 0x40110000
        0x00000e8a:    6940        @i      LDR      r0,[r0,#0x14]
        0x00000e8c:    428c        .B      CMP      r4,r1
        0x00000e8e:    d101        ..      BNE      0xe94 ; TIMER_GetModuleClock + 56
        0x00000e90:    0c00        ..      LSRS     r0,r0,#16
        0x00000e92:    e000        ..      B        0xe96 ; TIMER_GetModuleClock + 58
        0x00000e94:    0d00        ..      LSRS     r0,r0,#20
        0x00000e96:    0740        @.      LSLS     r0,r0,#29
        0x00000e98:    0f40        @.      LSRS     r0,r0,#29
        0x00000e9a:    2802        .(      CMP      r0,#2
        0x00000e9c:    d004        ..      BEQ      0xea8 ; TIMER_GetModuleClock + 76
        0x00000e9e:    0080        ..      LSLS     r0,r0,#2
        0x00000ea0:    4669        iF      MOV      r1,sp
        0x00000ea2:    5808        .X      LDR      r0,[r1,r0]
        0x00000ea4:    b008        ..      ADD      sp,sp,#0x20
        0x00000ea6:    bd10        ..      POP      {r4,pc}
        0x00000ea8:    4805        .H      LDR      r0,[pc,#20] ; [0xec0] = 0x20000000
        0x00000eaa:    6800        .h      LDR      r0,[r0,#0]
        0x00000eac:    e7fa        ..      B        0xea4 ; TIMER_GetModuleClock + 72
    $d
        0x00000eae:    0000        ..      DCW    0
        0x00000eb0:    00001efc    ....    DCD    7932
        0x00000eb4:    40010000    ...@    DCD    1073807360
        0x00000eb8:    50000200    ...P    DCD    1342177792
        0x00000ebc:    40110000    ...@    DCD    1074855936
        0x00000ec0:    20000000    ...     DCD    536870912
    $t
    i.TIMER_Open
    TIMER_Open
        0x00000ec4:    b5f7        ..      PUSH     {r0-r2,r4-r7,lr}
        0x00000ec6:    4617        .F      MOV      r7,r2
        0x00000ec8:    4606        .F      MOV      r6,r0
        0x00000eca:    f7ffffc7    ....    BL       TIMER_GetModuleClock ; 0xe5c
        0x00000ece:    4605        .F      MOV      r5,r0
        0x00000ed0:    2400        .$      MOVS     r4,#0
        0x00000ed2:    0840        @.      LSRS     r0,r0,#1
        0x00000ed4:    42b8        .B      CMP      r0,r7
        0x00000ed6:    d201        ..      BCS      0xedc ; TIMER_Open + 24
        0x00000ed8:    2002        .       MOVS     r0,#2
        0x00000eda:    e008        ..      B        0xeee ; TIMER_Open + 42
        0x00000edc:    4639        9F      MOV      r1,r7
        0x00000ede:    4628        (F      MOV      r0,r5
        0x00000ee0:    f7fff92c    ..,.    BL       __aeabi_uidiv ; 0x13c
        0x00000ee4:    0e04        ..      LSRS     r4,r0,#24
        0x00000ee6:    d002        ..      BEQ      0xeee ; TIMER_Open + 42
        0x00000ee8:    1c61        a.      ADDS     r1,r4,#1
        0x00000eea:    f7fff927    ..'.    BL       __aeabi_uidiv ; 0x13c
        0x00000eee:    9901        ..      LDR      r1,[sp,#4]
        0x00000ef0:    4321        !C      ORRS     r1,r1,r4
        0x00000ef2:    6031        1`      STR      r1,[r6,#0]
        0x00000ef4:    6070        p`      STR      r0,[r6,#4]
        0x00000ef6:    1c64        d.      ADDS     r4,r4,#1
        0x00000ef8:    4360        `C      MULS     r0,r4,r0
        0x00000efa:    4601        .F      MOV      r1,r0
        0x00000efc:    4628        (F      MOV      r0,r5
        0x00000efe:    f7fff91d    ....    BL       __aeabi_uidiv ; 0x13c
        0x00000f02:    bdfe        ..      POP      {r1-r7,pc}
    i.TMR1_IRQHandler
    TMR1_IRQHandler
        0x00000f04:    4805        .H      LDR      r0,[pc,#20] ; [0xf1c] = 0x40010020
        0x00000f06:    6881        .h      LDR      r1,[r0,#8]
        0x00000f08:    07c9        ..      LSLS     r1,r1,#31
        0x00000f0a:    0fc9        ..      LSRS     r1,r1,#31
        0x00000f0c:    d005        ..      BEQ      0xf1a ; TMR1_IRQHandler + 22
        0x00000f0e:    2101        .!      MOVS     r1,#1
        0x00000f10:    6081        .`      STR      r1,[r0,#8]
        0x00000f12:    4803        .H      LDR      r0,[pc,#12] ; [0xf20] = 0x20000030
        0x00000f14:    68c1        .h      LDR      r1,[r0,#0xc]
        0x00000f16:    1c49        I.      ADDS     r1,r1,#1
        0x00000f18:    60c1        .`      STR      r1,[r0,#0xc]
        0x00000f1a:    4770        pG      BX       lr
    $d
        0x00000f1c:    40010020     ..@    DCD    1073807392
        0x00000f20:    20000030    0..     DCD    536870960
    $t
    i.UART02_IRQHandler
    UART02_IRQHandler
        0x00000f24:    b570        p.      PUSH     {r4-r6,lr}
        0x00000f26:    4d0f        .M      LDR      r5,[pc,#60] ; [0xf64] = 0x40050000
        0x00000f28:    69ec        .i      LDR      r4,[r5,#0x1c]
        0x00000f2a:    2011        .       MOVS     r0,#0x11
        0x00000f2c:    4b0e        .K      LDR      r3,[pc,#56] ; [0xf68] = 0x20000074
        0x00000f2e:    4204        .B      TST      r4,r0
        0x00000f30:    d00d        ..      BEQ      0xf4e ; UART02_IRQHandler + 42
        0x00000f32:    4e0e        .N      LDR      r6,[pc,#56] ; [0xf6c] = 0x200006b8
        0x00000f34:    69a8        .i      LDR      r0,[r5,#0x18]
        0x00000f36:    0440        @.      LSLS     r0,r0,#17
        0x00000f38:    d409        ..      BMI      0xf4e ; UART02_IRQHandler + 42
        0x00000f3a:    7858        Xx      LDRB     r0,[r3,#1]
        0x00000f3c:    2840        @(      CMP      r0,#0x40
        0x00000f3e:    d206        ..      BCS      0xf4e ; UART02_IRQHandler + 42
        0x00000f40:    6829        )h      LDR      r1,[r5,#0]
        0x00000f42:    7858        Xx      LDRB     r0,[r3,#1]
        0x00000f44:    1832        2.      ADDS     r2,r6,r0
        0x00000f46:    1c40        @.      ADDS     r0,r0,#1
        0x00000f48:    7058        Xp      STRB     r0,[r3,#1]
        0x00000f4a:    7011        .p      STRB     r1,[r2,#0]
        0x00000f4c:    e7f2        ..      B        0xf34 ; UART02_IRQHandler + 16
        0x00000f4e:    7859        Yx      LDRB     r1,[r3,#1]
        0x00000f50:    2000        .       MOVS     r0,#0
        0x00000f52:    2940        @)      CMP      r1,#0x40
        0x00000f54:    d003        ..      BEQ      0xf5e ; UART02_IRQHandler + 58
        0x00000f56:    06e1        ..      LSLS     r1,r4,#27
        0x00000f58:    d500        ..      BPL      0xf5c ; UART02_IRQHandler + 56
        0x00000f5a:    7058        Xp      STRB     r0,[r3,#1]
        0x00000f5c:    bd70        p.      POP      {r4-r6,pc}
        0x00000f5e:    2101        .!      MOVS     r1,#1
        0x00000f60:    7019        .p      STRB     r1,[r3,#0]
        0x00000f62:    e7fa        ..      B        0xf5a ; UART02_IRQHandler + 54
    $d
        0x00000f64:    40050000    ...@    DCD    1074069504
        0x00000f68:    20000074    t..     DCD    536871028
        0x00000f6c:    200006b8    ...     DCD    536872632
    $t
    i.UART1_IRQHandler
    UART1_IRQHandler
        0x00000f70:    b510        ..      PUSH     {r4,lr}
        0x00000f72:    4c0b        .L      LDR      r4,[pc,#44] ; [0xfa0] = 0x40150000
        0x00000f74:    69e0        .i      LDR      r0,[r4,#0x1c]
        0x00000f76:    21ff        .!      MOVS     r1,#0xff
        0x00000f78:    3111        .1      ADDS     r1,r1,#0x11
        0x00000f7a:    4208        .B      TST      r0,r1
        0x00000f7c:    d102        ..      BNE      0xf84 ; UART1_IRQHandler + 20
        0x00000f7e:    e004        ..      B        0xf8a ; UART1_IRQHandler + 26
        0x00000f80:    f000f8ca    ....    BL       UARTx_Process ; 0x1118
        0x00000f84:    69a1        .i      LDR      r1,[r4,#0x18]
        0x00000f86:    0449        I.      LSLS     r1,r1,#17
        0x00000f88:    d5fa        ..      BPL      0xf80 ; UART1_IRQHandler + 16
        0x00000f8a:    69a1        .i      LDR      r1,[r4,#0x18]
        0x00000f8c:    4620         F      MOV      r0,r4
        0x00000f8e:    2271        q"      MOVS     r2,#0x71
        0x00000f90:    4211        .B      TST      r1,r2
        0x00000f92:    d003        ..      BEQ      0xf9c ; UART1_IRQHandler + 44
        0x00000f94:    2109        .!      MOVS     r1,#9
        0x00000f96:    0289        ..      LSLS     r1,r1,#10
        0x00000f98:    f000f804    ....    BL       UART_ClearIntFlag ; 0xfa4
        0x00000f9c:    bd10        ..      POP      {r4,pc}
    $d
        0x00000f9e:    0000        ..      DCW    0
        0x00000fa0:    40150000    ...@    DCD    1075118080
    $t
    i.UART_ClearIntFlag
    UART_ClearIntFlag
        0x00000fa4:    054a        J.      LSLS     r2,r1,#21
        0x00000fa6:    d503        ..      BPL      0xfb0 ; UART_ClearIntFlag + 12
        0x00000fa8:    2270        p"      MOVS     r2,#0x70
        0x00000faa:    6182        .a      STR      r2,[r0,#0x18]
        0x00000fac:    2208        ."      MOVS     r2,#8
        0x00000fae:    6182        .a      STR      r2,[r0,#0x18]
        0x00000fb0:    050a        ..      LSLS     r2,r1,#20
        0x00000fb2:    d503        ..      BPL      0xfbc ; UART_ClearIntFlag + 24
        0x00000fb4:    6942        Bi      LDR      r2,[r0,#0x14]
        0x00000fb6:    2301        .#      MOVS     r3,#1
        0x00000fb8:    431a        .C      ORRS     r2,r2,r3
        0x00000fba:    6142        Ba      STR      r2,[r0,#0x14]
        0x00000fbc:    048a        ..      LSLS     r2,r1,#18
        0x00000fbe:    d501        ..      BPL      0xfc4 ; UART_ClearIntFlag + 32
        0x00000fc0:    4a09        .J      LDR      r2,[pc,#36] ; [0xfe8] = 0x1000001
        0x00000fc2:    6182        .a      STR      r2,[r0,#0x18]
        0x00000fc4:    03ca        ..      LSLS     r2,r1,#15
        0x00000fc6:    d502        ..      BPL      0xfce ; UART_ClearIntFlag + 42
        0x00000fc8:    2201        ."      MOVS     r2,#1
        0x00000fca:    0412        ..      LSLS     r2,r2,#16
        0x00000fcc:    61c2        .a      STR      r2,[r0,#0x1c]
        0x00000fce:    038a        ..      LSLS     r2,r1,#14
        0x00000fd0:    d502        ..      BPL      0xfd8 ; UART_ClearIntFlag + 52
        0x00000fd2:    2201        ."      MOVS     r2,#1
        0x00000fd4:    0452        R.      LSLS     r2,r2,#17
        0x00000fd6:    61c2        .a      STR      r2,[r0,#0x1c]
        0x00000fd8:    0409        ..      LSLS     r1,r1,#16
        0x00000fda:    d503        ..      BPL      0xfe4 ; UART_ClearIntFlag + 64
        0x00000fdc:    2180        .!      MOVS     r1,#0x80
        0x00000fde:    61c1        .a      STR      r1,[r0,#0x1c]
        0x00000fe0:    4902        .I      LDR      r1,[pc,#8] ; [0xfec] = 0x30f
        0x00000fe2:    6381        .c      STR      r1,[r0,#0x38]
        0x00000fe4:    4770        pG      BX       lr
    $d
        0x00000fe6:    0000        ..      DCW    0
        0x00000fe8:    01000001    ....    DCD    16777217
        0x00000fec:    0000030f    ....    DCD    783
    $t
    i.UART_EnableInt
    UART_EnableInt
        0x00000ff0:    b510        ..      PUSH     {r4,lr}
        0x00000ff2:    6842        Bh      LDR      r2,[r0,#4]
        0x00000ff4:    430a        .C      ORRS     r2,r2,r1
        0x00000ff6:    6042        B`      STR      r2,[r0,#4]
        0x00000ff8:    490d        .I      LDR      r1,[pc,#52] ; [0x1030] = 0x40050000
        0x00000ffa:    4288        .B      CMP      r0,r1
        0x00000ffc:    d009        ..      BEQ      0x1012 ; UART_EnableInt + 34
        0x00000ffe:    490d        .I      LDR      r1,[pc,#52] ; [0x1034] = 0x40150000
        0x00001000:    4288        .B      CMP      r0,r1
        0x00001002:    d103        ..      BNE      0x100c ; UART_EnableInt + 28
        0x00001004:    200d        .       MOVS     r0,#0xd
        0x00001006:    f7fffca7    ....    BL       NVIC_EnableIRQ ; 0x958
        0x0000100a:    bd10        ..      POP      {r4,pc}
        0x0000100c:    490a        .I      LDR      r1,[pc,#40] ; [0x1038] = 0x40154000
        0x0000100e:    4288        .B      CMP      r0,r1
        0x00001010:    d101        ..      BNE      0x1016 ; UART_EnableInt + 38
        0x00001012:    200c        .       MOVS     r0,#0xc
        0x00001014:    e7f7        ..      B        0x1006 ; UART_EnableInt + 22
        0x00001016:    4909        .I      LDR      r1,[pc,#36] ; [0x103c] = 0x40054000
        0x00001018:    4288        .B      CMP      r0,r1
        0x0000101a:    d101        ..      BNE      0x1020 ; UART_EnableInt + 48
        0x0000101c:    200f        .       MOVS     r0,#0xf
        0x0000101e:    e7f2        ..      B        0x1006 ; UART_EnableInt + 22
        0x00001020:    4907        .I      LDR      r1,[pc,#28] ; [0x1040] = 0x40058000
        0x00001022:    4288        .B      CMP      r0,r1
        0x00001024:    d101        ..      BNE      0x102a ; UART_EnableInt + 58
        0x00001026:    2010        .       MOVS     r0,#0x10
        0x00001028:    e7ed        ..      B        0x1006 ; UART_EnableInt + 22
        0x0000102a:    2011        .       MOVS     r0,#0x11
        0x0000102c:    e7eb        ..      B        0x1006 ; UART_EnableInt + 22
    $d
        0x0000102e:    0000        ..      DCW    0
        0x00001030:    40050000    ...@    DCD    1074069504
        0x00001034:    40150000    ...@    DCD    1075118080
        0x00001038:    40154000    .@.@    DCD    1075134464
        0x0000103c:    40054000    .@.@    DCD    1074085888
        0x00001040:    40058000    ...@    DCD    1074102272
    $t
    i.UART_Init
    UART_Init
        0x00001044:    480d        .H      LDR      r0,[pc,#52] ; [0x107c] = 0x40050000
        0x00001046:    2100        .!      MOVS     r1,#0
        0x00001048:    6301        .c      STR      r1,[r0,#0x30]
        0x0000104a:    2103        .!      MOVS     r1,#3
        0x0000104c:    60c1        .`      STR      r1,[r0,#0xc]
        0x0000104e:    490c        .I      LDR      r1,[pc,#48] ; [0x1080] = 0x30030
        0x00001050:    6081        .`      STR      r1,[r0,#8]
        0x00001052:    210a        .!      MOVS     r1,#0xa
        0x00001054:    6241        Ab      STR      r1,[r0,#0x24]
        0x00001056:    6a01        .j      LDR      r1,[r0,#0x20]
        0x00001058:    0a09        ..      LSRS     r1,r1,#8
        0x0000105a:    0209        ..      LSLS     r1,r1,#8
        0x0000105c:    3140        @1      ADDS     r1,r1,#0x40
        0x0000105e:    6201        .b      STR      r1,[r0,#0x20]
        0x00001060:    4908        .I      LDR      r1,[pc,#32] ; [0x1084] = 0xe000e40c
        0x00001062:    680a        .h      LDR      r2,[r1,#0]
        0x00001064:    2380        .#      MOVS     r3,#0x80
        0x00001066:    0a12        ..      LSRS     r2,r2,#8
        0x00001068:    0212        ..      LSLS     r2,r2,#8
        0x0000106a:    431a        .C      ORRS     r2,r2,r3
        0x0000106c:    600a        .`      STR      r2,[r1,#0]
        0x0000106e:    4a06        .J      LDR      r2,[pc,#24] ; [0x1088] = 0xe000e100
        0x00001070:    0159        Y.      LSLS     r1,r3,#5
        0x00001072:    6011        .`      STR      r1,[r2,#0]
        0x00001074:    4905        .I      LDR      r1,[pc,#20] ; [0x108c] = 0x811
        0x00001076:    6041        A`      STR      r1,[r0,#4]
        0x00001078:    4770        pG      BX       lr
    $d
        0x0000107a:    0000        ..      DCW    0
        0x0000107c:    40050000    ...@    DCD    1074069504
        0x00001080:    00030030    0...    DCD    196656
        0x00001084:    e000e40c    ....    DCD    3758154764
        0x00001088:    e000e100    ....    DCD    3758153984
        0x0000108c:    00000811    ....    DCD    2065
    $t
    i.UART_Open
    UART_Open
        0x00001090:    b5f0        ..      PUSH     {r4-r7,lr}
        0x00001092:    4604        .F      MOV      r4,r0
        0x00001094:    481c        .H      LDR      r0,[pc,#112] ; [0x1108] = 0x1ecc
        0x00001096:    460d        .F      MOV      r5,r1
        0x00001098:    c80f        ..      LDM      r0,{r0-r3}
        0x0000109a:    b085        ..      SUB      sp,sp,#0x14
        0x0000109c:    466e        nF      MOV      r6,sp
        0x0000109e:    c60f        ..      STM      r6!,{r0-r3}
        0x000010a0:    481a        .H      LDR      r0,[pc,#104] ; [0x110c] = 0x50000200
        0x000010a2:    6941        Ai      LDR      r1,[r0,#0x14]
        0x000010a4:    6980        .i      LDR      r0,[r0,#0x18]
        0x000010a6:    018a        ..      LSLS     r2,r1,#6
        0x000010a8:    2103        .!      MOVS     r1,#3
        0x000010aa:    0f96        ..      LSRS     r6,r2,#30
        0x000010ac:    0500        ..      LSLS     r0,r0,#20
        0x000010ae:    0f07        ..      LSRS     r7,r0,#28
        0x000010b0:    2000        .       MOVS     r0,#0
        0x000010b2:    6320         c      STR      r0,[r4,#0x30]
        0x000010b4:    60e1        .`      STR      r1,[r4,#0xc]
        0x000010b6:    68a0        .h      LDR      r0,[r4,#8]
        0x000010b8:    4915        .I      LDR      r1,[pc,#84] ; [0x1110] = 0xfff0ff0f
        0x000010ba:    4008        .@      ANDS     r0,r0,r1
        0x000010bc:    60a0        .`      STR      r0,[r4,#8]
        0x000010be:    2e01        ..      CMP      r6,#1
        0x000010c0:    d102        ..      BNE      0x10c8 ; UART_Open + 56
        0x000010c2:    f7fff9e7    ....    BL       CLK_GetPLLClockFreq ; 0x494
        0x000010c6:    9001        ..      STR      r0,[sp,#4]
        0x000010c8:    2d00        .-      CMP      r5,#0
        0x000010ca:    d01b        ..      BEQ      0x1104 ; UART_Open + 116
        0x000010cc:    00b1        ..      LSLS     r1,r6,#2
        0x000010ce:    4668        hF      MOV      r0,sp
        0x000010d0:    5840        @X      LDR      r0,[r0,r1]
        0x000010d2:    1c79        y.      ADDS     r1,r7,#1
        0x000010d4:    f7fff832    ..2.    BL       __aeabi_uidiv ; 0x13c
        0x000010d8:    4606        .F      MOV      r6,r0
        0x000010da:    0869        i.      LSRS     r1,r5,#1
        0x000010dc:    1840        @.      ADDS     r0,r0,r1
        0x000010de:    4629        )F      MOV      r1,r5
        0x000010e0:    f7fff82c    ..,.    BL       __aeabi_uidiv ; 0x13c
        0x000010e4:    490b        .I      LDR      r1,[pc,#44] ; [0x1114] = 0xffff
        0x000010e6:    1e80        ..      SUBS     r0,r0,#2
        0x000010e8:    4288        .B      CMP      r0,r1
        0x000010ea:    d907        ..      BLS      0x10fc ; UART_Open + 108
        0x000010ec:    00e9        ..      LSLS     r1,r5,#3
        0x000010ee:    1870        p.      ADDS     r0,r6,r1
        0x000010f0:    4629        )F      MOV      r1,r5
        0x000010f2:    f7fff823    ..#.    BL       __aeabi_uidiv ; 0x13c
        0x000010f6:    0900        ..      LSRS     r0,r0,#4
        0x000010f8:    1e80        ..      SUBS     r0,r0,#2
        0x000010fa:    e002        ..      B        0x1102 ; UART_Open + 114
        0x000010fc:    2103        .!      MOVS     r1,#3
        0x000010fe:    0709        ..      LSLS     r1,r1,#28
        0x00001100:    4308        .C      ORRS     r0,r0,r1
        0x00001102:    6260        `b      STR      r0,[r4,#0x24]
        0x00001104:    b005        ..      ADD      sp,sp,#0x14
        0x00001106:    bdf0        ..      POP      {r4-r7,pc}
    $d
        0x00001108:    00001ecc    ....    DCD    7884
        0x0000110c:    50000200    ...P    DCD    1342177792
        0x00001110:    fff0ff0f    ....    DCD    4293984015
        0x00001114:    0000ffff    ....    DCD    65535
    $t
    i.UARTx_Process
    UARTx_Process
        0x00001118:    b510        ..      PUSH     {r4,lr}
        0x0000111a:    480e        .H      LDR      r0,[pc,#56] ; [0x1154] = 0x40150000
        0x0000111c:    6800        .h      LDR      r0,[r0,#0]
        0x0000111e:    b2c0        ..      UXTB     r0,r0
        0x00001120:    287f        .(      CMP      r0,#0x7f
        0x00001122:    d903        ..      BLS      0x112c ; UARTx_Process + 20
        0x00001124:    a00c        ..      ADR      r0,{pc}+0x34 ; 0x1158
        0x00001126:    f000f86b    ..k.    BL       __0printf$8 ; 0x1200
        0x0000112a:    bd10        ..      POP      {r4,pc}
        0x0000112c:    285a        Z(      CMP      r0,#0x5a
        0x0000112e:    d009        ..      BEQ      0x1144 ; UARTx_Process + 44
        0x00001130:    dc04        ..      BGT      0x113c ; UARTx_Process + 36
        0x00001132:    2831        1(      CMP      r0,#0x31
        0x00001134:    d0f9        ..      BEQ      0x112a ; UARTx_Process + 18
        0x00001136:    2858        X(      CMP      r0,#0x58
        0x00001138:    d1f7        ..      BNE      0x112a ; UARTx_Process + 18
        0x0000113a:    e003        ..      B        0x1144 ; UARTx_Process + 44
        0x0000113c:    2878        x(      CMP      r0,#0x78
        0x0000113e:    d001        ..      BEQ      0x1144 ; UARTx_Process + 44
        0x00001140:    287a        z(      CMP      r0,#0x7a
        0x00001142:    d1f2        ..      BNE      0x112a ; UARTx_Process + 18
        0x00001144:    f3bf8f4f    ..O.    DSB      
        0x00001148:    490d        .I      LDR      r1,[pc,#52] ; [0x1180] = 0xe000ed00
        0x0000114a:    480c        .H      LDR      r0,[pc,#48] ; [0x117c] = 0x5fa0004
        0x0000114c:    60c8        .`      STR      r0,[r1,#0xc]
        0x0000114e:    f3bf8f4f    ..O.    DSB      
        0x00001152:    e7fe        ..      B        0x1152 ; UARTx_Process + 58
    $d
        0x00001154:    40150000    ...@    DCD    1075118080
        0x00001158:    3b315b1b    .[1;    DCD    993090331
        0x0000115c:    5b6d3633    36m[    DCD    1533883955
        0x00001160:    4f52444c    LDRO    DCD    1330791500
        0x00001164:    6e695d4d    M]in    DCD    1852398925
        0x00001168:    696c6176    vali    DCD    1768710518
        0x0000116c:    6f632064    d co    DCD    1868767332
        0x00001170:    6e616d6d    mman    DCD    1851878765
        0x00001174:    1b0a0d64    d...    DCD    453643620
        0x00001178:    006d305b    [0m.    DCD    7155803
        0x0000117c:    05fa0004    ....    DCD    100270084
        0x00001180:    e000ed00    ....    DCD    3758157056
    $t
    i.UPDC32
    UPDC32
        0x00001184:    4048        H@      EORS     r0,r0,r1
        0x00001186:    0600        ..      LSLS     r0,r0,#24
        0x00001188:    4a02        .J      LDR      r2,[pc,#8] ; [0x1194] = 0x20000078
        0x0000118a:    0d80        ..      LSRS     r0,r0,#22
        0x0000118c:    5810        .X      LDR      r0,[r2,r0]
        0x0000118e:    0a09        ..      LSRS     r1,r1,#8
        0x00001190:    4048        H@      EORS     r0,r0,r1
        0x00001192:    4770        pG      BX       lr
    $d
        0x00001194:    20000078    x..     DCD    536871032
    $t
    i.UpdateConfig
    UpdateConfig
        0x00001198:    b5f8        ..      PUSH     {r3-r7,lr}
        0x0000119a:    4e10        .N      LDR      r6,[pc,#64] ; [0x11dc] = 0x5000c000
        0x0000119c:    4605        .F      MOV      r5,r0
        0x0000119e:    6830        0h      LDR      r0,[r6,#0]
        0x000011a0:    460c        .F      MOV      r4,r1
        0x000011a2:    2710        .'      MOVS     r7,#0x10
        0x000011a4:    4338        8C      ORRS     r0,r0,r7
        0x000011a6:    6030        0`      STR      r0,[r6,#0]
        0x000011a8:    01b0        ..      LSLS     r0,r6,#6
        0x000011aa:    f7fffaeb    ....    BL       FMC_Erase_User ; 0x784
        0x000011ae:    01b0        ..      LSLS     r0,r6,#6
        0x000011b0:    6829        )h      LDR      r1,[r5,#0]
        0x000011b2:    f7fffb37    ..7.    BL       FMC_Write_User ; 0x824
        0x000011b6:    6869        ih      LDR      r1,[r5,#4]
        0x000011b8:    4d09        .M      LDR      r5,[pc,#36] ; [0x11e0] = 0x300004
        0x000011ba:    4628        (F      MOV      r0,r5
        0x000011bc:    f7fffb32    ..2.    BL       FMC_Write_User ; 0x824
        0x000011c0:    2c00        .,      CMP      r4,#0
        0x000011c2:    d007        ..      BEQ      0x11d4 ; UpdateConfig + 60
        0x000011c4:    4621        !F      MOV      r1,r4
        0x000011c6:    1f28        (.      SUBS     r0,r5,#4
        0x000011c8:    f7fffb08    ....    BL       FMC_Read_User ; 0x7dc
        0x000011cc:    1d21        !.      ADDS     r1,r4,#4
        0x000011ce:    4628        (F      MOV      r0,r5
        0x000011d0:    f7fffb04    ....    BL       FMC_Read_User ; 0x7dc
        0x000011d4:    6830        0h      LDR      r0,[r6,#0]
        0x000011d6:    43b8        .C      BICS     r0,r0,r7
        0x000011d8:    6030        0`      STR      r0,[r6,#0]
        0x000011da:    bdf8        ..      POP      {r3-r7,pc}
    $d
        0x000011dc:    5000c000    ...P    DCD    1342226432
        0x000011e0:    00300004    ..0.    DCD    3145732
    $t
    i.WriteData
    WriteData
        0x000011e4:    b570        p.      PUSH     {r4-r6,lr}
        0x000011e6:    4615        .F      MOV      r5,r2
        0x000011e8:    460e        .F      MOV      r6,r1
        0x000011ea:    4604        .F      MOV      r4,r0
        0x000011ec:    e005        ..      B        0x11fa ; WriteData + 22
        0x000011ee:    4620         F      MOV      r0,r4
        0x000011f0:    6829        )h      LDR      r1,[r5,#0]
        0x000011f2:    f7fffb17    ....    BL       FMC_Write_User ; 0x824
        0x000011f6:    1d24        $.      ADDS     r4,r4,#4
        0x000011f8:    1d2d        -.      ADDS     r5,r5,#4
        0x000011fa:    42b4        .B      CMP      r4,r6
        0x000011fc:    d3f7        ..      BCC      0x11ee ; WriteData + 10
        0x000011fe:    bd70        p.      POP      {r4-r6,pc}
    i.__0printf$8
    __0printf$8
    __1printf$8
    __2printf
        0x00001200:    b40f        ..      PUSH     {r0-r3}
        0x00001202:    b510        ..      PUSH     {r4,lr}
        0x00001204:    a903        ..      ADD      r1,sp,#0xc
        0x00001206:    4b04        .K      LDR      r3,[pc,#16] ; [0x1218] = 0x1a05
        0x00001208:    4a04        .J      LDR      r2,[pc,#16] ; [0x121c] = 0x2000002c
        0x0000120a:    9802        ..      LDR      r0,[sp,#8]
        0x0000120c:    f000f818    ....    BL       _printf_core ; 0x1240
        0x00001210:    bc10        ..      POP      {r4}
        0x00001212:    bc08        ..      POP      {r3}
        0x00001214:    b004        ..      ADD      sp,sp,#0x10
        0x00001216:    4718        .G      BX       r3
    $d
        0x00001218:    00001a05    ....    DCD    6661
        0x0000121c:    2000002c    ,..     DCD    536870956
    $t
    i.__scatterload_copy
    __scatterload_copy
        0x00001220:    e002        ..      B        0x1228 ; __scatterload_copy + 8
        0x00001222:    c808        ..      LDM      r0!,{r3}
        0x00001224:    1f12        ..      SUBS     r2,r2,#4
        0x00001226:    c108        ..      STM      r1!,{r3}
        0x00001228:    2a00        .*      CMP      r2,#0
        0x0000122a:    d1fa        ..      BNE      0x1222 ; __scatterload_copy + 2
        0x0000122c:    4770        pG      BX       lr
    i.__scatterload_null
    __scatterload_null
        0x0000122e:    4770        pG      BX       lr
    i.__scatterload_zeroinit
    __scatterload_zeroinit
        0x00001230:    2000        .       MOVS     r0,#0
        0x00001232:    e001        ..      B        0x1238 ; __scatterload_zeroinit + 8
        0x00001234:    c101        ..      STM      r1!,{r0}
        0x00001236:    1f12        ..      SUBS     r2,r2,#4
        0x00001238:    2a00        .*      CMP      r2,#0
        0x0000123a:    d1fb        ..      BNE      0x1234 ; __scatterload_zeroinit + 4
        0x0000123c:    4770        pG      BX       lr
        0x0000123e:    0000        ..      MOVS     r0,r0
    i._printf_core
    _printf_core
        0x00001240:    b5ff        ..      PUSH     {r0-r7,lr}
        0x00001242:    b091        ..      SUB      sp,sp,#0x44
        0x00001244:    460f        .F      MOV      r7,r1
        0x00001246:    4605        .F      MOV      r5,r0
        0x00001248:    2600        .&      MOVS     r6,#0
        0x0000124a:    e006        ..      B        0x125a ; _printf_core + 26
        0x0000124c:    2825        %(      CMP      r0,#0x25
        0x0000124e:    d00a        ..      BEQ      0x1266 ; _printf_core + 38
        0x00001250:    9a14        ..      LDR      r2,[sp,#0x50]
        0x00001252:    9913        ..      LDR      r1,[sp,#0x4c]
        0x00001254:    4790        .G      BLX      r2
        0x00001256:    1c6d        m.      ADDS     r5,r5,#1
        0x00001258:    1c76        v.      ADDS     r6,r6,#1
        0x0000125a:    7828        (x      LDRB     r0,[r5,#0]
        0x0000125c:    2800        .(      CMP      r0,#0
        0x0000125e:    d1f5        ..      BNE      0x124c ; _printf_core + 12
        0x00001260:    4630        0F      MOV      r0,r6
        0x00001262:    b015        ..      ADD      sp,sp,#0x54
        0x00001264:    bdf0        ..      POP      {r4-r7,pc}
        0x00001266:    2400        .$      MOVS     r4,#0
        0x00001268:    9400        ..      STR      r4,[sp,#0]
        0x0000126a:    2101        .!      MOVS     r1,#1
        0x0000126c:    4af3        .J      LDR      r2,[pc,#972] ; [0x163c] = 0x12809
        0x0000126e:    9402        ..      STR      r4,[sp,#8]
        0x00001270:    e000        ..      B        0x1274 ; _printf_core + 52
        0x00001272:    4304        .C      ORRS     r4,r4,r0
        0x00001274:    1c6d        m.      ADDS     r5,r5,#1
        0x00001276:    782b        +x      LDRB     r3,[r5,#0]
        0x00001278:    4608        .F      MOV      r0,r1
        0x0000127a:    3b20         ;      SUBS     r3,r3,#0x20
        0x0000127c:    4098        .@      LSLS     r0,r0,r3
        0x0000127e:    4210        .B      TST      r0,r2
        0x00001280:    d1f7        ..      BNE      0x1272 ; _printf_core + 50
        0x00001282:    7828        (x      LDRB     r0,[r5,#0]
        0x00001284:    282a        *(      CMP      r0,#0x2a
        0x00001286:    d00e        ..      BEQ      0x12a6 ; _printf_core + 102
        0x00001288:    2102        .!      MOVS     r1,#2
        0x0000128a:    7828        (x      LDRB     r0,[r5,#0]
        0x0000128c:    4602        .F      MOV      r2,r0
        0x0000128e:    3a30        0:      SUBS     r2,r2,#0x30
        0x00001290:    2a09        .*      CMP      r2,#9
        0x00001292:    d815        ..      BHI      0x12c0 ; _printf_core + 128
        0x00001294:    9a00        ..      LDR      r2,[sp,#0]
        0x00001296:    230a        .#      MOVS     r3,#0xa
        0x00001298:    435a        ZC      MULS     r2,r3,r2
        0x0000129a:    3a30        0:      SUBS     r2,r2,#0x30
        0x0000129c:    1880        ..      ADDS     r0,r0,r2
        0x0000129e:    430c        .C      ORRS     r4,r4,r1
        0x000012a0:    1c6d        m.      ADDS     r5,r5,#1
        0x000012a2:    9000        ..      STR      r0,[sp,#0]
        0x000012a4:    e7f1        ..      B        0x128a ; _printf_core + 74
        0x000012a6:    cf01        ..      LDM      r7!,{r0}
        0x000012a8:    9000        ..      STR      r0,[sp,#0]
        0x000012aa:    2800        .(      CMP      r0,#0
        0x000012ac:    da05        ..      BGE      0x12ba ; _printf_core + 122
        0x000012ae:    2001        .       MOVS     r0,#1
        0x000012b0:    0340        @.      LSLS     r0,r0,#13
        0x000012b2:    4304        .C      ORRS     r4,r4,r0
        0x000012b4:    9800        ..      LDR      r0,[sp,#0]
        0x000012b6:    4240        @B      RSBS     r0,r0,#0
        0x000012b8:    9000        ..      STR      r0,[sp,#0]
        0x000012ba:    2002        .       MOVS     r0,#2
        0x000012bc:    4304        .C      ORRS     r4,r4,r0
        0x000012be:    1c6d        m.      ADDS     r5,r5,#1
        0x000012c0:    7828        (x      LDRB     r0,[r5,#0]
        0x000012c2:    282e        .(      CMP      r0,#0x2e
        0x000012c4:    d115        ..      BNE      0x12f2 ; _printf_core + 178
        0x000012c6:    2004        .       MOVS     r0,#4
        0x000012c8:    4304        .C      ORRS     r4,r4,r0
        0x000012ca:    7868        hx      LDRB     r0,[r5,#1]
        0x000012cc:    1c6d        m.      ADDS     r5,r5,#1
        0x000012ce:    282a        *(      CMP      r0,#0x2a
        0x000012d0:    d10a        ..      BNE      0x12e8 ; _printf_core + 168
        0x000012d2:    cf01        ..      LDM      r7!,{r0}
        0x000012d4:    1c6d        m.      ADDS     r5,r5,#1
        0x000012d6:    9002        ..      STR      r0,[sp,#8]
        0x000012d8:    e00b        ..      B        0x12f2 ; _printf_core + 178
        0x000012da:    9902        ..      LDR      r1,[sp,#8]
        0x000012dc:    220a        ."      MOVS     r2,#0xa
        0x000012de:    4351        QC      MULS     r1,r2,r1
        0x000012e0:    3930        09      SUBS     r1,r1,#0x30
        0x000012e2:    1840        @.      ADDS     r0,r0,r1
        0x000012e4:    1c6d        m.      ADDS     r5,r5,#1
        0x000012e6:    9002        ..      STR      r0,[sp,#8]
        0x000012e8:    7828        (x      LDRB     r0,[r5,#0]
        0x000012ea:    4601        .F      MOV      r1,r0
        0x000012ec:    3930        09      SUBS     r1,r1,#0x30
        0x000012ee:    2909        .)      CMP      r1,#9
        0x000012f0:    d9f3        ..      BLS      0x12da ; _printf_core + 154
        0x000012f2:    7828        (x      LDRB     r0,[r5,#0]
        0x000012f4:    286c        l(      CMP      r0,#0x6c
        0x000012f6:    d010        ..      BEQ      0x131a ; _printf_core + 218
        0x000012f8:    dc06        ..      BGT      0x1308 ; _printf_core + 200
        0x000012fa:    284c        L(      CMP      r0,#0x4c
        0x000012fc:    d01a        ..      BEQ      0x1334 ; _printf_core + 244
        0x000012fe:    2868        h(      CMP      r0,#0x68
        0x00001300:    d00e        ..      BEQ      0x1320 ; _printf_core + 224
        0x00001302:    286a        j(      CMP      r0,#0x6a
        0x00001304:    d117        ..      BNE      0x1336 ; _printf_core + 246
        0x00001306:    e004        ..      B        0x1312 ; _printf_core + 210
        0x00001308:    2874        t(      CMP      r0,#0x74
        0x0000130a:    d013        ..      BEQ      0x1334 ; _printf_core + 244
        0x0000130c:    287a        z(      CMP      r0,#0x7a
        0x0000130e:    d112        ..      BNE      0x1336 ; _printf_core + 246
        0x00001310:    e010        ..      B        0x1334 ; _printf_core + 244
        0x00001312:    2001        .       MOVS     r0,#1
        0x00001314:    0540        @.      LSLS     r0,r0,#21
        0x00001316:    4304        .C      ORRS     r4,r4,r0
        0x00001318:    e00c        ..      B        0x1334 ; _printf_core + 244
        0x0000131a:    2101        .!      MOVS     r1,#1
        0x0000131c:    0509        ..      LSLS     r1,r1,#20
        0x0000131e:    e001        ..      B        0x1324 ; _printf_core + 228
        0x00001320:    2103        .!      MOVS     r1,#3
        0x00001322:    0509        ..      LSLS     r1,r1,#20
        0x00001324:    430c        .C      ORRS     r4,r4,r1
        0x00001326:    7869        ix      LDRB     r1,[r5,#1]
        0x00001328:    4281        .B      CMP      r1,r0
        0x0000132a:    d103        ..      BNE      0x1334 ; _printf_core + 244
        0x0000132c:    2001        .       MOVS     r0,#1
        0x0000132e:    0500        ..      LSLS     r0,r0,#20
        0x00001330:    1824        $.      ADDS     r4,r4,r0
        0x00001332:    1c6d        m.      ADDS     r5,r5,#1
        0x00001334:    1c6d        m.      ADDS     r5,r5,#1
        0x00001336:    7828        (x      LDRB     r0,[r5,#0]
        0x00001338:    9003        ..      STR      r0,[sp,#0xc]
        0x0000133a:    286e        n(      CMP      r0,#0x6e
        0x0000133c:    d01e        ..      BEQ      0x137c ; _printf_core + 316
        0x0000133e:    dc0c        ..      BGT      0x135a ; _printf_core + 282
        0x00001340:    2863        c(      CMP      r0,#0x63
        0x00001342:    d031        1.      BEQ      0x13a8 ; _printf_core + 360
        0x00001344:    dc04        ..      BGT      0x1350 ; _printf_core + 272
        0x00001346:    2800        .(      CMP      r0,#0
        0x00001348:    d08a        ..      BEQ      0x1260 ; _printf_core + 32
        0x0000134a:    2858        X(      CMP      r0,#0x58
        0x0000134c:    d111        ..      BNE      0x1372 ; _printf_core + 306
        0x0000134e:    e0b2        ..      B        0x14b6 ; _printf_core + 630
        0x00001350:    2864        d(      CMP      r0,#0x64
        0x00001352:    d07b        {.      BEQ      0x144c ; _printf_core + 524
        0x00001354:    2869        i(      CMP      r0,#0x69
        0x00001356:    d10c        ..      BNE      0x1372 ; _printf_core + 306
        0x00001358:    e078        x.      B        0x144c ; _printf_core + 524
        0x0000135a:    2873        s(      CMP      r0,#0x73
        0x0000135c:    d02d        -.      BEQ      0x13ba ; _printf_core + 378
        0x0000135e:    dc04        ..      BGT      0x136a ; _printf_core + 298
        0x00001360:    286f        o(      CMP      r0,#0x6f
        0x00001362:    d070        p.      BEQ      0x1446 ; _printf_core + 518
        0x00001364:    2870        p(      CMP      r0,#0x70
        0x00001366:    d104        ..      BNE      0x1372 ; _printf_core + 306
        0x00001368:    e0a7        ..      B        0x14ba ; _printf_core + 634
        0x0000136a:    2875        u(      CMP      r0,#0x75
        0x0000136c:    d06c        l.      BEQ      0x1448 ; _printf_core + 520
        0x0000136e:    2878        x(      CMP      r0,#0x78
        0x00001370:    d06b        k.      BEQ      0x144a ; _printf_core + 522
        0x00001372:    9a14        ..      LDR      r2,[sp,#0x50]
        0x00001374:    9913        ..      LDR      r1,[sp,#0x4c]
        0x00001376:    4790        .G      BLX      r2
        0x00001378:    1c76        v.      ADDS     r6,r6,#1
        0x0000137a:    e062        b.      B        0x1442 ; _printf_core + 514
        0x0000137c:    0260        `.      LSLS     r0,r4,#9
        0x0000137e:    0f40        @.      LSRS     r0,r0,#29
        0x00001380:    2802        .(      CMP      r0,#2
        0x00001382:    d007        ..      BEQ      0x1394 ; _printf_core + 340
        0x00001384:    2803        .(      CMP      r0,#3
        0x00001386:    d00a        ..      BEQ      0x139e ; _printf_core + 350
        0x00001388:    2804        .(      CMP      r0,#4
        0x0000138a:    6838        8h      LDR      r0,[r7,#0]
        0x0000138c:    d00a        ..      BEQ      0x13a4 ; _printf_core + 356
        0x0000138e:    6006        .`      STR      r6,[r0,#0]
        0x00001390:    1d3f        ?.      ADDS     r7,r7,#4
        0x00001392:    e056        V.      B        0x1442 ; _printf_core + 514
        0x00001394:    6838        8h      LDR      r0,[r7,#0]
        0x00001396:    17f1        ..      ASRS     r1,r6,#31
        0x00001398:    6006        .`      STR      r6,[r0,#0]
        0x0000139a:    6041        A`      STR      r1,[r0,#4]
        0x0000139c:    e7f8        ..      B        0x1390 ; _printf_core + 336
        0x0000139e:    6838        8h      LDR      r0,[r7,#0]
        0x000013a0:    8006        ..      STRH     r6,[r0,#0]
        0x000013a2:    e7f5        ..      B        0x1390 ; _printf_core + 336
        0x000013a4:    7006        .p      STRB     r6,[r0,#0]
        0x000013a6:    e7f3        ..      B        0x1390 ; _printf_core + 336
        0x000013a8:    7838        8x      LDRB     r0,[r7,#0]
        0x000013aa:    4669        iF      MOV      r1,sp
        0x000013ac:    7408        .t      STRB     r0,[r1,#0x10]
        0x000013ae:    2000        .       MOVS     r0,#0
        0x000013b0:    7448        Ht      STRB     r0,[r1,#0x11]
        0x000013b2:    a804        ..      ADD      r0,sp,#0x10
        0x000013b4:    9003        ..      STR      r0,[sp,#0xc]
        0x000013b6:    2001        .       MOVS     r0,#1
        0x000013b8:    e003        ..      B        0x13c2 ; _printf_core + 386
        0x000013ba:    6838        8h      LDR      r0,[r7,#0]
        0x000013bc:    9003        ..      STR      r0,[sp,#0xc]
        0x000013be:    2000        .       MOVS     r0,#0
        0x000013c0:    43c0        .C      MVNS     r0,r0
        0x000013c2:    1d3f        ?.      ADDS     r7,r7,#4
        0x000013c4:    0761        a.      LSLS     r1,r4,#29
        0x000013c6:    d50f        ..      BPL      0x13e8 ; _printf_core + 424
        0x000013c8:    2100        .!      MOVS     r1,#0
        0x000013ca:    e001        ..      B        0x13d0 ; _printf_core + 400
        0x000013cc:    9901        ..      LDR      r1,[sp,#4]
        0x000013ce:    1c49        I.      ADDS     r1,r1,#1
        0x000013d0:    9a02        ..      LDR      r2,[sp,#8]
        0x000013d2:    9101        ..      STR      r1,[sp,#4]
        0x000013d4:    4291        .B      CMP      r1,r2
        0x000013d6:    da13        ..      BGE      0x1400 ; _printf_core + 448
        0x000013d8:    4281        .B      CMP      r1,r0
        0x000013da:    dbf7        ..      BLT      0x13cc ; _printf_core + 396
        0x000013dc:    9a01        ..      LDR      r2,[sp,#4]
        0x000013de:    9903        ..      LDR      r1,[sp,#0xc]
        0x000013e0:    5c89        .\      LDRB     r1,[r1,r2]
        0x000013e2:    2900        .)      CMP      r1,#0
        0x000013e4:    d1f2        ..      BNE      0x13cc ; _printf_core + 396
        0x000013e6:    e00b        ..      B        0x1400 ; _printf_core + 448
        0x000013e8:    2100        .!      MOVS     r1,#0
        0x000013ea:    e001        ..      B        0x13f0 ; _printf_core + 432
        0x000013ec:    9901        ..      LDR      r1,[sp,#4]
        0x000013ee:    1c49        I.      ADDS     r1,r1,#1
        0x000013f0:    9101        ..      STR      r1,[sp,#4]
        0x000013f2:    4281        .B      CMP      r1,r0
        0x000013f4:    dbfa        ..      BLT      0x13ec ; _printf_core + 428
        0x000013f6:    9a01        ..      LDR      r2,[sp,#4]
        0x000013f8:    9903        ..      LDR      r1,[sp,#0xc]
        0x000013fa:    5c89        .\      LDRB     r1,[r1,r2]
        0x000013fc:    2900        .)      CMP      r1,#0
        0x000013fe:    d1f5        ..      BNE      0x13ec ; _printf_core + 428
        0x00001400:    9901        ..      LDR      r1,[sp,#4]
        0x00001402:    9800        ..      LDR      r0,[sp,#0]
        0x00001404:    9a13        ..      LDR      r2,[sp,#0x4c]
        0x00001406:    1a40        @.      SUBS     r0,r0,r1
        0x00001408:    9000        ..      STR      r0,[sp,#0]
        0x0000140a:    4621        !F      MOV      r1,r4
        0x0000140c:    9b14        ..      LDR      r3,[sp,#0x50]
        0x0000140e:    f000f93b    ..;.    BL       _printf_pre_padding ; 0x1688
        0x00001412:    9901        ..      LDR      r1,[sp,#4]
        0x00001414:    1980        ..      ADDS     r0,r0,r6
        0x00001416:    1846        F.      ADDS     r6,r0,r1
        0x00001418:    e007        ..      B        0x142a ; _printf_core + 490
        0x0000141a:    9803        ..      LDR      r0,[sp,#0xc]
        0x0000141c:    9903        ..      LDR      r1,[sp,#0xc]
        0x0000141e:    7800        .x      LDRB     r0,[r0,#0]
        0x00001420:    1c49        I.      ADDS     r1,r1,#1
        0x00001422:    9103        ..      STR      r1,[sp,#0xc]
        0x00001424:    9a14        ..      LDR      r2,[sp,#0x50]
        0x00001426:    9913        ..      LDR      r1,[sp,#0x4c]
        0x00001428:    4790        .G      BLX      r2
        0x0000142a:    9801        ..      LDR      r0,[sp,#4]
        0x0000142c:    1e40        @.      SUBS     r0,r0,#1
        0x0000142e:    9001        ..      STR      r0,[sp,#4]
        0x00001430:    1c40        @.      ADDS     r0,r0,#1
        0x00001432:    d1f2        ..      BNE      0x141a ; _printf_core + 474
        0x00001434:    4621        !F      MOV      r1,r4
        0x00001436:    9b14        ..      LDR      r3,[sp,#0x50]
        0x00001438:    9a13        ..      LDR      r2,[sp,#0x4c]
        0x0000143a:    9800        ..      LDR      r0,[sp,#0]
        0x0000143c:    f000f914    ....    BL       _printf_post_padding ; 0x1668
        0x00001440:    1986        ..      ADDS     r6,r0,r6
        0x00001442:    1c6d        m.      ADDS     r5,r5,#1
        0x00001444:    e709        ..      B        0x125a ; _printf_core + 26
        0x00001446:    e041        A.      B        0x14cc ; _printf_core + 652
        0x00001448:    e033        3.      B        0x14b2 ; _printf_core + 626
        0x0000144a:    e034        4.      B        0x14b6 ; _printf_core + 630
        0x0000144c:    200a        .       MOVS     r0,#0xa
        0x0000144e:    2100        .!      MOVS     r1,#0
        0x00001450:    9004        ..      STR      r0,[sp,#0x10]
        0x00001452:    9105        ..      STR      r1,[sp,#0x14]
        0x00001454:    0260        `.      LSLS     r0,r4,#9
        0x00001456:    0f41        A.      LSRS     r1,r0,#29
        0x00001458:    2902        .)      CMP      r1,#2
        0x0000145a:    d005        ..      BEQ      0x1468 ; _printf_core + 552
        0x0000145c:    cf01        ..      LDM      r7!,{r0}
        0x0000145e:    17c2        ..      ASRS     r2,r0,#31
        0x00001460:    4694        .F      MOV      r12,r2
        0x00001462:    2903        .)      CMP      r1,#3
        0x00001464:    d005        ..      BEQ      0x1472 ; _printf_core + 562
        0x00001466:    e007        ..      B        0x1478 ; _printf_core + 568
        0x00001468:    1dff        ..      ADDS     r7,r7,#7
        0x0000146a:    08ff        ..      LSRS     r7,r7,#3
        0x0000146c:    00ff        ..      LSLS     r7,r7,#3
        0x0000146e:    cf03        ..      LDM      r7!,{r0,r1}
        0x00001470:    e006        ..      B        0x1480 ; _printf_core + 576
        0x00001472:    b200        ..      SXTH     r0,r0
        0x00001474:    17c2        ..      ASRS     r2,r0,#31
        0x00001476:    4694        .F      MOV      r12,r2
        0x00001478:    2904        .)      CMP      r1,#4
        0x0000147a:    d102        ..      BNE      0x1482 ; _printf_core + 578
        0x0000147c:    b240        @.      SXTB     r0,r0
        0x0000147e:    17c1        ..      ASRS     r1,r0,#31
        0x00001480:    468c        .F      MOV      r12,r1
        0x00001482:    2200        ."      MOVS     r2,#0
        0x00001484:    4661        aF      MOV      r1,r12
        0x00001486:    4594        .E      CMP      r12,r2
        0x00001488:    da06        ..      BGE      0x1498 ; _printf_core + 600
        0x0000148a:    460a        .F      MOV      r2,r1
        0x0000148c:    2100        .!      MOVS     r1,#0
        0x0000148e:    4240        @B      RSBS     r0,r0,#0
        0x00001490:    4191        .A      SBCS     r1,r1,r2
        0x00001492:    468c        .F      MOV      r12,r1
        0x00001494:    212d        -!      MOVS     r1,#0x2d
        0x00001496:    e002        ..      B        0x149e ; _printf_core + 606
        0x00001498:    0521        !.      LSLS     r1,r4,#20
        0x0000149a:    d504        ..      BPL      0x14a6 ; _printf_core + 614
        0x0000149c:    212b        +!      MOVS     r1,#0x2b
        0x0000149e:    466a        jF      MOV      r2,sp
        0x000014a0:    7611        .v      STRB     r1,[r2,#0x18]
        0x000014a2:    2101        .!      MOVS     r1,#1
        0x000014a4:    e003        ..      B        0x14ae ; _printf_core + 622
        0x000014a6:    07e1        ..      LSLS     r1,r4,#31
        0x000014a8:    d001        ..      BEQ      0x14ae ; _printf_core + 622
        0x000014aa:    2120         !      MOVS     r1,#0x20
        0x000014ac:    e7f7        ..      B        0x149e ; _printf_core + 606
        0x000014ae:    9101        ..      STR      r1,[sp,#4]
        0x000014b0:    e054        T.      B        0x155c ; _printf_core + 796
        0x000014b2:    200a        .       MOVS     r0,#0xa
        0x000014b4:    e00b        ..      B        0x14ce ; _printf_core + 654
        0x000014b6:    2010        .       MOVS     r0,#0x10
        0x000014b8:    e009        ..      B        0x14ce ; _printf_core + 654
        0x000014ba:    2010        .       MOVS     r0,#0x10
        0x000014bc:    9004        ..      STR      r0,[sp,#0x10]
        0x000014be:    2100        .!      MOVS     r1,#0
        0x000014c0:    2004        .       MOVS     r0,#4
        0x000014c2:    4304        .C      ORRS     r4,r4,r0
        0x000014c4:    2008        .       MOVS     r0,#8
        0x000014c6:    9105        ..      STR      r1,[sp,#0x14]
        0x000014c8:    9002        ..      STR      r0,[sp,#8]
        0x000014ca:    e003        ..      B        0x14d4 ; _printf_core + 660
        0x000014cc:    2008        .       MOVS     r0,#8
        0x000014ce:    2100        .!      MOVS     r1,#0
        0x000014d0:    9105        ..      STR      r1,[sp,#0x14]
        0x000014d2:    9004        ..      STR      r0,[sp,#0x10]
        0x000014d4:    0260        `.      LSLS     r0,r4,#9
        0x000014d6:    0f41        A.      LSRS     r1,r0,#29
        0x000014d8:    2902        .)      CMP      r1,#2
        0x000014da:    d005        ..      BEQ      0x14e8 ; _printf_core + 680
        0x000014dc:    cf01        ..      LDM      r7!,{r0}
        0x000014de:    2200        ."      MOVS     r2,#0
        0x000014e0:    4694        .F      MOV      r12,r2
        0x000014e2:    2903        .)      CMP      r1,#3
        0x000014e4:    d006        ..      BEQ      0x14f4 ; _printf_core + 692
        0x000014e6:    e006        ..      B        0x14f6 ; _printf_core + 694
        0x000014e8:    1dff        ..      ADDS     r7,r7,#7
        0x000014ea:    08ff        ..      LSRS     r7,r7,#3
        0x000014ec:    00ff        ..      LSLS     r7,r7,#3
        0x000014ee:    cf03        ..      LDM      r7!,{r0,r1}
        0x000014f0:    468c        .F      MOV      r12,r1
        0x000014f2:    e003        ..      B        0x14fc ; _printf_core + 700
        0x000014f4:    b280        ..      UXTH     r0,r0
        0x000014f6:    2904        .)      CMP      r1,#4
        0x000014f8:    d100        ..      BNE      0x14fc ; _printf_core + 700
        0x000014fa:    b2c0        ..      UXTB     r0,r0
        0x000014fc:    2100        .!      MOVS     r1,#0
        0x000014fe:    9101        ..      STR      r1,[sp,#4]
        0x00001500:    0721        !.      LSLS     r1,r4,#28
        0x00001502:    d52b        +.      BPL      0x155c ; _printf_core + 796
        0x00001504:    9903        ..      LDR      r1,[sp,#0xc]
        0x00001506:    2970        p)      CMP      r1,#0x70
        0x00001508:    d006        ..      BEQ      0x1518 ; _printf_core + 728
        0x0000150a:    9a04        ..      LDR      r2,[sp,#0x10]
        0x0000150c:    2110        .!      MOVS     r1,#0x10
        0x0000150e:    9b05        ..      LDR      r3,[sp,#0x14]
        0x00001510:    404a        J@      EORS     r2,r2,r1
        0x00001512:    431a        .C      ORRS     r2,r2,r3
        0x00001514:    d005        ..      BEQ      0x1522 ; _printf_core + 738
        0x00001516:    e00e        ..      B        0x1536 ; _printf_core + 758
        0x00001518:    2140        @!      MOVS     r1,#0x40
        0x0000151a:    466a        jF      MOV      r2,sp
        0x0000151c:    7611        .v      STRB     r1,[r2,#0x18]
        0x0000151e:    2101        .!      MOVS     r1,#1
        0x00001520:    e008        ..      B        0x1534 ; _printf_core + 756
        0x00001522:    4661        aF      MOV      r1,r12
        0x00001524:    4301        .C      ORRS     r1,r1,r0
        0x00001526:    d006        ..      BEQ      0x1536 ; _printf_core + 758
        0x00001528:    2130        0!      MOVS     r1,#0x30
        0x0000152a:    466a        jF      MOV      r2,sp
        0x0000152c:    7611        .v      STRB     r1,[r2,#0x18]
        0x0000152e:    9903        ..      LDR      r1,[sp,#0xc]
        0x00001530:    7651        Qv      STRB     r1,[r2,#0x19]
        0x00001532:    2102        .!      MOVS     r1,#2
        0x00001534:    9101        ..      STR      r1,[sp,#4]
        0x00001536:    9a04        ..      LDR      r2,[sp,#0x10]
        0x00001538:    2108        .!      MOVS     r1,#8
        0x0000153a:    9b05        ..      LDR      r3,[sp,#0x14]
        0x0000153c:    404a        J@      EORS     r2,r2,r1
        0x0000153e:    431a        .C      ORRS     r2,r2,r3
        0x00001540:    d10c        ..      BNE      0x155c ; _printf_core + 796
        0x00001542:    4661        aF      MOV      r1,r12
        0x00001544:    4301        .C      ORRS     r1,r1,r0
        0x00001546:    d101        ..      BNE      0x154c ; _printf_core + 780
        0x00001548:    0761        a.      LSLS     r1,r4,#29
        0x0000154a:    d507        ..      BPL      0x155c ; _printf_core + 796
        0x0000154c:    2130        0!      MOVS     r1,#0x30
        0x0000154e:    466a        jF      MOV      r2,sp
        0x00001550:    7611        .v      STRB     r1,[r2,#0x18]
        0x00001552:    2101        .!      MOVS     r1,#1
        0x00001554:    9101        ..      STR      r1,[sp,#4]
        0x00001556:    9902        ..      LDR      r1,[sp,#8]
        0x00001558:    1e49        I.      SUBS     r1,r1,#1
        0x0000155a:    9102        ..      STR      r1,[sp,#8]
        0x0000155c:    9903        ..      LDR      r1,[sp,#0xc]
        0x0000155e:    2958        X)      CMP      r1,#0x58
        0x00001560:    d004        ..      BEQ      0x156c ; _printf_core + 812
        0x00001562:    a137        7.      ADR      r1,{pc}+0xde ; 0x1640
        0x00001564:    9103        ..      STR      r1,[sp,#0xc]
        0x00001566:    a90f        ..      ADD      r1,sp,#0x3c
        0x00001568:    910f        ..      STR      r1,[sp,#0x3c]
        0x0000156a:    e00d        ..      B        0x1588 ; _printf_core + 840
        0x0000156c:    a139        9.      ADR      r1,{pc}+0xe8 ; 0x1654
        0x0000156e:    e7f9        ..      B        0x1564 ; _printf_core + 804
        0x00001570:    4661        aF      MOV      r1,r12
        0x00001572:    9b05        ..      LDR      r3,[sp,#0x14]
        0x00001574:    9a04        ..      LDR      r2,[sp,#0x10]
        0x00001576:    f7fefe1b    ....    BL       __aeabi_uldivmod ; 0x1b0
        0x0000157a:    9b03        ..      LDR      r3,[sp,#0xc]
        0x0000157c:    468c        .F      MOV      r12,r1
        0x0000157e:    5c9b        .\      LDRB     r3,[r3,r2]
        0x00001580:    9a0f        ..      LDR      r2,[sp,#0x3c]
        0x00001582:    1e52        R.      SUBS     r2,r2,#1
        0x00001584:    920f        ..      STR      r2,[sp,#0x3c]
        0x00001586:    7013        .p      STRB     r3,[r2,#0]
        0x00001588:    4661        aF      MOV      r1,r12
        0x0000158a:    4301        .C      ORRS     r1,r1,r0
        0x0000158c:    d1f0        ..      BNE      0x1570 ; _printf_core + 816
        0x0000158e:    980f        ..      LDR      r0,[sp,#0x3c]
        0x00001590:    a907        ..      ADD      r1,sp,#0x1c
        0x00001592:    1a08        ..      SUBS     r0,r1,r0
        0x00001594:    3020         0      ADDS     r0,r0,#0x20
        0x00001596:    9003        ..      STR      r0,[sp,#0xc]
        0x00001598:    0760        `.      LSLS     r0,r4,#29
        0x0000159a:    d504        ..      BPL      0x15a6 ; _printf_core + 870
        0x0000159c:    2001        .       MOVS     r0,#1
        0x0000159e:    0400        ..      LSLS     r0,r0,#16
        0x000015a0:    4384        .C      BICS     r4,r4,r0
        0x000015a2:    9802        ..      LDR      r0,[sp,#8]
        0x000015a4:    e001        ..      B        0x15aa ; _printf_core + 874
        0x000015a6:    2001        .       MOVS     r0,#1
        0x000015a8:    9002        ..      STR      r0,[sp,#8]
        0x000015aa:    9903        ..      LDR      r1,[sp,#0xc]
        0x000015ac:    4288        .B      CMP      r0,r1
        0x000015ae:    dd01        ..      BLE      0x15b4 ; _printf_core + 884
        0x000015b0:    1a40        @.      SUBS     r0,r0,r1
        0x000015b2:    e000        ..      B        0x15b6 ; _printf_core + 886
        0x000015b4:    2000        .       MOVS     r0,#0
        0x000015b6:    1841        A.      ADDS     r1,r0,r1
        0x000015b8:    9002        ..      STR      r0,[sp,#8]
        0x000015ba:    9801        ..      LDR      r0,[sp,#4]
        0x000015bc:    1809        ..      ADDS     r1,r1,r0
        0x000015be:    9800        ..      LDR      r0,[sp,#0]
        0x000015c0:    1a40        @.      SUBS     r0,r0,r1
        0x000015c2:    9000        ..      STR      r0,[sp,#0]
        0x000015c4:    03e0        ..      LSLS     r0,r4,#15
        0x000015c6:    d406        ..      BMI      0x15d6 ; _printf_core + 918
        0x000015c8:    4621        !F      MOV      r1,r4
        0x000015ca:    9b14        ..      LDR      r3,[sp,#0x50]
        0x000015cc:    9a13        ..      LDR      r2,[sp,#0x4c]
        0x000015ce:    9800        ..      LDR      r0,[sp,#0]
        0x000015d0:    f000f85a    ..Z.    BL       _printf_pre_padding ; 0x1688
        0x000015d4:    1986        ..      ADDS     r6,r0,r6
        0x000015d6:    2000        .       MOVS     r0,#0
        0x000015d8:    9004        ..      STR      r0,[sp,#0x10]
        0x000015da:    e008        ..      B        0x15ee ; _printf_core + 942
        0x000015dc:    a906        ..      ADD      r1,sp,#0x18
        0x000015de:    5c08        .\      LDRB     r0,[r1,r0]
        0x000015e0:    9a14        ..      LDR      r2,[sp,#0x50]
        0x000015e2:    9913        ..      LDR      r1,[sp,#0x4c]
        0x000015e4:    4790        .G      BLX      r2
        0x000015e6:    9804        ..      LDR      r0,[sp,#0x10]
        0x000015e8:    1c40        @.      ADDS     r0,r0,#1
        0x000015ea:    1c76        v.      ADDS     r6,r6,#1
        0x000015ec:    9004        ..      STR      r0,[sp,#0x10]
        0x000015ee:    9901        ..      LDR      r1,[sp,#4]
        0x000015f0:    4288        .B      CMP      r0,r1
        0x000015f2:    dbf3        ..      BLT      0x15dc ; _printf_core + 924
        0x000015f4:    03e0        ..      LSLS     r0,r4,#15
        0x000015f6:    d50c        ..      BPL      0x1612 ; _printf_core + 978
        0x000015f8:    4621        !F      MOV      r1,r4
        0x000015fa:    9b14        ..      LDR      r3,[sp,#0x50]
        0x000015fc:    9a13        ..      LDR      r2,[sp,#0x4c]
        0x000015fe:    9800        ..      LDR      r0,[sp,#0]
        0x00001600:    f000f842    ..B.    BL       _printf_pre_padding ; 0x1688
        0x00001604:    1986        ..      ADDS     r6,r0,r6
        0x00001606:    e004        ..      B        0x1612 ; _printf_core + 978
        0x00001608:    9a14        ..      LDR      r2,[sp,#0x50]
        0x0000160a:    2030        0       MOVS     r0,#0x30
        0x0000160c:    9913        ..      LDR      r1,[sp,#0x4c]
        0x0000160e:    4790        .G      BLX      r2
        0x00001610:    1c76        v.      ADDS     r6,r6,#1
        0x00001612:    9902        ..      LDR      r1,[sp,#8]
        0x00001614:    1e48        H.      SUBS     r0,r1,#1
        0x00001616:    9002        ..      STR      r0,[sp,#8]
        0x00001618:    2900        .)      CMP      r1,#0
        0x0000161a:    dcf5        ..      BGT      0x1608 ; _printf_core + 968
        0x0000161c:    e008        ..      B        0x1630 ; _printf_core + 1008
        0x0000161e:    980f        ..      LDR      r0,[sp,#0x3c]
        0x00001620:    990f        ..      LDR      r1,[sp,#0x3c]
        0x00001622:    7800        .x      LDRB     r0,[r0,#0]
        0x00001624:    1c49        I.      ADDS     r1,r1,#1
        0x00001626:    910f        ..      STR      r1,[sp,#0x3c]
        0x00001628:    9a14        ..      LDR      r2,[sp,#0x50]
        0x0000162a:    9913        ..      LDR      r1,[sp,#0x4c]
        0x0000162c:    4790        .G      BLX      r2
        0x0000162e:    1c76        v.      ADDS     r6,r6,#1
        0x00001630:    9903        ..      LDR      r1,[sp,#0xc]
        0x00001632:    1e48        H.      SUBS     r0,r1,#1
        0x00001634:    9003        ..      STR      r0,[sp,#0xc]
        0x00001636:    2900        .)      CMP      r1,#0
        0x00001638:    dcf1        ..      BGT      0x161e ; _printf_core + 990
        0x0000163a:    e6fb        ..      B        0x1434 ; _printf_core + 500
    $d
        0x0000163c:    00012809    .(..    DCD    75785
        0x00001640:    33323130    0123    DCD    858927408
        0x00001644:    37363534    4567    DCD    926299444
        0x00001648:    62613938    89ab    DCD    1650538808
        0x0000164c:    66656463    cdef    DCD    1717920867
        0x00001650:    00000000    ....    DCD    0
        0x00001654:    33323130    0123    DCD    858927408
        0x00001658:    37363534    4567    DCD    926299444
        0x0000165c:    42413938    89AB    DCD    1111570744
        0x00001660:    46454443    CDEF    DCD    1178944579
        0x00001664:    00000000    ....    DCD    0
    $t
    i._printf_post_padding
    _printf_post_padding
        0x00001668:    b5f8        ..      PUSH     {r3-r7,lr}
        0x0000166a:    4604        .F      MOV      r4,r0
        0x0000166c:    2500        .%      MOVS     r5,#0
        0x0000166e:    461e        .F      MOV      r6,r3
        0x00001670:    4617        .F      MOV      r7,r2
        0x00001672:    0488        ..      LSLS     r0,r1,#18
        0x00001674:    d404        ..      BMI      0x1680 ; _printf_post_padding + 24
        0x00001676:    e005        ..      B        0x1684 ; _printf_post_padding + 28
        0x00001678:    4639        9F      MOV      r1,r7
        0x0000167a:    2020                MOVS     r0,#0x20
        0x0000167c:    47b0        .G      BLX      r6
        0x0000167e:    1c6d        m.      ADDS     r5,r5,#1
        0x00001680:    1e64        d.      SUBS     r4,r4,#1
        0x00001682:    d5f9        ..      BPL      0x1678 ; _printf_post_padding + 16
        0x00001684:    4628        (F      MOV      r0,r5
        0x00001686:    bdf8        ..      POP      {r3-r7,pc}
    i._printf_pre_padding
    _printf_pre_padding
        0x00001688:    b5ff        ..      PUSH     {r0-r7,lr}
        0x0000168a:    4604        .F      MOV      r4,r0
        0x0000168c:    2500        .%      MOVS     r5,#0
        0x0000168e:    b081        ..      SUB      sp,sp,#4
        0x00001690:    461e        .F      MOV      r6,r3
        0x00001692:    03c8        ..      LSLS     r0,r1,#15
        0x00001694:    d501        ..      BPL      0x169a ; _printf_pre_padding + 18
        0x00001696:    2730        0'      MOVS     r7,#0x30
        0x00001698:    e000        ..      B        0x169c ; _printf_pre_padding + 20
        0x0000169a:    2720         '      MOVS     r7,#0x20
        0x0000169c:    0488        ..      LSLS     r0,r1,#18
        0x0000169e:    d504        ..      BPL      0x16aa ; _printf_pre_padding + 34
        0x000016a0:    e005        ..      B        0x16ae ; _printf_pre_padding + 38
        0x000016a2:    4638        8F      MOV      r0,r7
        0x000016a4:    9903        ..      LDR      r1,[sp,#0xc]
        0x000016a6:    47b0        .G      BLX      r6
        0x000016a8:    1c6d        m.      ADDS     r5,r5,#1
        0x000016aa:    1e64        d.      SUBS     r4,r4,#1
        0x000016ac:    d5f9        ..      BPL      0x16a2 ; _printf_pre_padding + 26
        0x000016ae:    4628        (F      MOV      r0,r5
        0x000016b0:    b005        ..      ADD      sp,sp,#0x14
        0x000016b2:    bdf0        ..      POP      {r4-r7,pc}
    i.caculate_crc32_checksum
    caculate_crc32_checksum
        0x000016b4:    b57c        |.      PUSH     {r2-r6,lr}
        0x000016b6:    4605        .F      MOV      r5,r0
        0x000016b8:    460e        .F      MOV      r6,r1
        0x000016ba:    a01a        ..      ADR      r0,{pc}+0x6a ; 0x1724
        0x000016bc:    f7fffda0    ....    BL       __0printf$8 ; 0x1200
        0x000016c0:    f000f84c    ..L.    BL       calculate_table ; 0x175c
        0x000016c4:    2000        .       MOVS     r0,#0
        0x000016c6:    4c24        $L      LDR      r4,[pc,#144] ; [0x1758] = 0x20000030
        0x000016c8:    43c0        .C      MVNS     r0,r0
        0x000016ca:    6120         a      STR      r0,[r4,#0x10]
        0x000016cc:    9500        ..      STR      r5,[sp,#0]
        0x000016ce:    19ad        ..      ADDS     r5,r5,r6
        0x000016d0:    9800        ..      LDR      r0,[sp,#0]
        0x000016d2:    e021        !.      B        0x1718 ; caculate_crc32_checksum + 100
        0x000016d4:    f7fff872    ..r.    BL       FMC_Read ; 0x7bc
        0x000016d8:    9001        ..      STR      r0,[sp,#4]
        0x000016da:    b2c0        ..      UXTB     r0,r0
        0x000016dc:    6921        !i      LDR      r1,[r4,#0x10]
        0x000016de:    f7fffd51    ..Q.    BL       UPDC32 ; 0x1184
        0x000016e2:    6120         a      STR      r0,[r4,#0x10]
        0x000016e4:    9901        ..      LDR      r1,[sp,#4]
        0x000016e6:    0409        ..      LSLS     r1,r1,#16
        0x000016e8:    0e0a        ..      LSRS     r2,r1,#24
        0x000016ea:    4601        .F      MOV      r1,r0
        0x000016ec:    4610        .F      MOV      r0,r2
        0x000016ee:    f7fffd49    ..I.    BL       UPDC32 ; 0x1184
        0x000016f2:    6120         a      STR      r0,[r4,#0x10]
        0x000016f4:    9901        ..      LDR      r1,[sp,#4]
        0x000016f6:    0209        ..      LSLS     r1,r1,#8
        0x000016f8:    0e0a        ..      LSRS     r2,r1,#24
        0x000016fa:    4601        .F      MOV      r1,r0
        0x000016fc:    4610        .F      MOV      r0,r2
        0x000016fe:    f7fffd41    ..A.    BL       UPDC32 ; 0x1184
        0x00001702:    6120         a      STR      r0,[r4,#0x10]
        0x00001704:    9901        ..      LDR      r1,[sp,#4]
        0x00001706:    0e0a        ..      LSRS     r2,r1,#24
        0x00001708:    4601        .F      MOV      r1,r0
        0x0000170a:    4610        .F      MOV      r0,r2
        0x0000170c:    f7fffd3a    ..:.    BL       UPDC32 ; 0x1184
        0x00001710:    6120         a      STR      r0,[r4,#0x10]
        0x00001712:    9800        ..      LDR      r0,[sp,#0]
        0x00001714:    1d00        ..      ADDS     r0,r0,#4
        0x00001716:    9000        ..      STR      r0,[sp,#0]
        0x00001718:    4285        .B      CMP      r5,r0
        0x0000171a:    d8db        ..      BHI      0x16d4 ; caculate_crc32_checksum + 32
        0x0000171c:    6920         i      LDR      r0,[r4,#0x10]
        0x0000171e:    43c0        .C      MVNS     r0,r0
        0x00001720:    bd7c        |.      POP      {r2-r6,pc}
    $d
        0x00001722:    0000        ..      DCW    0
        0x00001724:    3b315b1b    .[1;    DCD    993090331
        0x00001728:    5b6d3633    36m[    DCD    1533883955
        0x0000172c:    4f52444c    LDRO    DCD    1330791500
        0x00001730:    4e455d4d    M]EN    DCD    1313168717
        0x00001734:    454c4241    ABLE    DCD    1162625601
        0x00001738:    5f57535f    _SW_    DCD    1599558495
        0x0000173c:    33435243    CRC3    DCD    860049987
        0x00001740:    535b3a32    2:[S    DCD    1398487602
        0x00001744:    5f4d4152    RAM_    DCD    1598898514
        0x00001748:    4c424154    TABL    DCD    1279410516
        0x0000174c:    0a0d5d45    E]..    DCD    168648005
        0x00001750:    6d305b1b    .[0m    DCD    1831885595
        0x00001754:    00000000    ....    DCD    0
        0x00001758:    20000030    0..     DCD    536870960
    $t
    i.calculate_table
    calculate_table
        0x0000175c:    b530        0.      PUSH     {r4,r5,lr}
        0x0000175e:    4b0a        .K      LDR      r3,[pc,#40] ; [0x1788] = 0xedb88320
        0x00001760:    4c0a        .L      LDR      r4,[pc,#40] ; [0x178c] = 0x20000078
        0x00001762:    2100        .!      MOVS     r1,#0
        0x00001764:    4608        .F      MOV      r0,r1
        0x00001766:    2208        ."      MOVS     r2,#8
        0x00001768:    e005        ..      B        0x1776 ; calculate_table + 26
        0x0000176a:    07c5        ..      LSLS     r5,r0,#31
        0x0000176c:    d002        ..      BEQ      0x1774 ; calculate_table + 24
        0x0000176e:    0840        @.      LSRS     r0,r0,#1
        0x00001770:    4058        X@      EORS     r0,r0,r3
        0x00001772:    e000        ..      B        0x1776 ; calculate_table + 26
        0x00001774:    0840        @.      LSRS     r0,r0,#1
        0x00001776:    1e52        R.      SUBS     r2,r2,#1
        0x00001778:    d5f7        ..      BPL      0x176a ; calculate_table + 14
        0x0000177a:    008a        ..      LSLS     r2,r1,#2
        0x0000177c:    1c49        I.      ADDS     r1,r1,#1
        0x0000177e:    50a0        .P      STR      r0,[r4,r2]
        0x00001780:    29ff        .)      CMP      r1,#0xff
        0x00001782:    d9ef        ..      BLS      0x1764 ; calculate_table + 8
        0x00001784:    bd30        0.      POP      {r4,r5,pc}
    $d
        0x00001786:    0000        ..      DCW    0
        0x00001788:    edb88320     ...    DCD    3988292384
        0x0000178c:    20000078    x..     DCD    536871032
    $t
    i.check_reset_source
    check_reset_source
        0x00001790:    b570        p.      PUSH     {r4-r6,lr}
        0x00001792:    f7fffa3f    ..?.    BL       SYS_GetResetSrc ; 0xc14
        0x00001796:    4605        .F      MOV      r5,r0
        0x00001798:    2005        .       MOVS     r0,#5
        0x0000179a:    0700        ..      LSLS     r0,r0,#28
        0x0000179c:    6841        Ah      LDR      r1,[r0,#4]
        0x0000179e:    22ff        ."      MOVS     r2,#0xff
        0x000017a0:    4311        .C      ORRS     r1,r1,r2
        0x000017a2:    6041        A`      STR      r1,[r0,#4]
        0x000017a4:    4629        )F      MOV      r1,r5
        0x000017a6:    a01f        ..      ADR      r0,{pc}+0x7e ; 0x1824
        0x000017a8:    f7fffd2a    ..*.    BL       __0printf$8 ; 0x1200
        0x000017ac:    f000fa44    ..D.    BL       read_magic_tag ; 0x1c38
        0x000017b0:    4604        .F      MOV      r4,r0
        0x000017b2:    07e8        ..      LSLS     r0,r5,#31
        0x000017b4:    d012        ..      BEQ      0x17dc ; check_reset_source + 76
        0x000017b6:    2001        .       MOVS     r0,#1
        0x000017b8:    f7fffa26    ..&.    BL       SYS_ClearResetSrc ; 0xc08
        0x000017bc:    2ca5        .,      CMP      r4,#0xa5
        0x000017be:    d003        ..      BEQ      0x17c8 ; check_reset_source + 56
        0x000017c0:    2cbb        .,      CMP      r4,#0xbb
        0x000017c2:    d006        ..      BEQ      0x17d2 ; check_reset_source + 66
        0x000017c4:    a022        ".      ADR      r0,{pc}+0x8c ; 0x1850
        0x000017c6:    e027        '.      B        0x1818 ; check_reset_source + 136
        0x000017c8:    2000        .       MOVS     r0,#0
        0x000017ca:    f000fb47    ..G.    BL       write_magic_tag ; 0x1e5c
        0x000017ce:    a02c        ,.      ADR      r0,{pc}+0xb2 ; 0x1880
        0x000017d0:    e013        ..      B        0x17fa ; check_reset_source + 106
        0x000017d2:    2000        .       MOVS     r0,#0
        0x000017d4:    f000fb42    ..B.    BL       write_magic_tag ; 0x1e5c
        0x000017d8:    a038        8.      ADR      r0,{pc}+0xe4 ; 0x18bc
        0x000017da:    e01d        ..      B        0x1818 ; check_reset_source + 136
        0x000017dc:    0628        (.      LSLS     r0,r5,#24
        0x000017de:    d515        ..      BPL      0x180c ; check_reset_source + 124
        0x000017e0:    2080        .       MOVS     r0,#0x80
        0x000017e2:    f7fffa11    ....    BL       SYS_ClearResetSrc ; 0xc08
        0x000017e6:    2ca5        .,      CMP      r4,#0xa5
        0x000017e8:    d003        ..      BEQ      0x17f2 ; check_reset_source + 98
        0x000017ea:    2cbb        .,      CMP      r4,#0xbb
        0x000017ec:    d009        ..      BEQ      0x1802 ; check_reset_source + 114
        0x000017ee:    a03f        ?.      ADR      r0,{pc}+0xfe ; 0x18ec
        0x000017f0:    e012        ..      B        0x1818 ; check_reset_source + 136
        0x000017f2:    2000        .       MOVS     r0,#0
        0x000017f4:    f000fb32    ..2.    BL       write_magic_tag ; 0x1e5c
        0x000017f8:    a049        I.      ADR      r0,{pc}+0x128 ; 0x1920
        0x000017fa:    f7fffd01    ....    BL       __0printf$8 ; 0x1200
        0x000017fe:    2001        .       MOVS     r0,#1
        0x00001800:    bd70        p.      POP      {r4-r6,pc}
        0x00001802:    2000        .       MOVS     r0,#0
        0x00001804:    f000fb2a    ..*.    BL       write_magic_tag ; 0x1e5c
        0x00001808:    a054        T.      ADR      r0,{pc}+0x154 ; 0x195c
        0x0000180a:    e005        ..      B        0x1818 ; check_reset_source + 136
        0x0000180c:    07a8        ..      LSLS     r0,r5,#30
        0x0000180e:    d507        ..      BPL      0x1820 ; check_reset_source + 144
        0x00001810:    2002        .       MOVS     r0,#2
        0x00001812:    f7fff9f9    ....    BL       SYS_ClearResetSrc ; 0xc08
        0x00001816:    a05d        ].      ADR      r0,{pc}+0x176 ; 0x198c
        0x00001818:    f7fffcf2    ....    BL       __0printf$8 ; 0x1200
        0x0000181c:    2000        .       MOVS     r0,#0
        0x0000181e:    bd70        p.      POP      {r4-r6,pc}
        0x00001820:    a068        h.      ADR      r0,{pc}+0x1a4 ; 0x19c4
        0x00001822:    e7f9        ..      B        0x1818 ; check_reset_source + 136
    $d
        0x00001824:    3b315b1b    .[1;    DCD    993090331
        0x00001828:    5b6d3633    36m[    DCD    1533883955
        0x0000182c:    4f52444c    LDRO    DCD    1330791500
        0x00001830:    65525d4d    M]Re    DCD    1699896653
        0x00001834:    20746573    set     DCD    544499059
        0x00001838:    72756f53    Sour    DCD    1920298835
        0x0000183c:    3c206563    ce <    DCD    1008756067
        0x00001840:    30257830    0x%0    DCD    807761968
        0x00001844:    0d3e5838    8X>.    DCD    222189624
        0x00001848:    305b1b0a    ..[0    DCD    811277066
        0x0000184c:    0000006d    m...    DCD    109
        0x00001850:    3b315b1b    .[1;    DCD    993090331
        0x00001854:    5b6d3633    36m[    DCD    1533883955
        0x00001858:    4f52444c    LDRO    DCD    1330791500
        0x0000185c:    6e455d4d    M]En    DCD    1850039629
        0x00001860:    20726574    ter     DCD    544367988
        0x00001864:    544f4f42    BOOT    DCD    1414483778
        0x00001868:    44414f4c    LOAD    DCD    1145130828
        0x0000186c:    66205245    ER f    DCD    1713394245
        0x00001870:    206d6f72    rom     DCD    544042866
        0x00001874:    0d524f50    POR.    DCD    223498064
        0x00001878:    305b1b0a    ..[0    DCD    811277066
        0x0000187c:    0000006d    m...    DCD    109
        0x00001880:    3b315b1b    .[1;    DCD    993090331
        0x00001884:    5b6d3633    36m[    DCD    1533883955
        0x00001888:    4f52444c    LDRO    DCD    1330791500
        0x0000188c:    6e455d4d    M]En    DCD    1850039629
        0x00001890:    20726574    ter     DCD    544367988
        0x00001894:    544f4f42    BOOT    DCD    1414483778
        0x00001898:    44414f4c    LOAD    DCD    1145130828
        0x0000189c:    66205245    ER f    DCD    1713394245
        0x000018a0:    206d6f72    rom     DCD    544042866
        0x000018a4:    4c505041    APPL    DCD    1280331841
        0x000018a8:    54414349    ICAT    DCD    1413563209
        0x000018ac:    284e4f49    ION(    DCD    676220745
        0x000018b0:    29524f50    POR)    DCD    693260112
        0x000018b4:    5b1b0a0d    ...[    DCD    1528498701
        0x000018b8:    00006d30    0m..    DCD    27952
        0x000018bc:    3b315b1b    .[1;    DCD    993090331
        0x000018c0:    5b6d3633    36m[    DCD    1533883955
        0x000018c4:    4f52444c    LDRO    DCD    1330791500
        0x000018c8:    70555d4d    M]Up    DCD    1884642637
        0x000018cc:    64617267    grad    DCD    1684107879
        0x000018d0:    69662065    e fi    DCD    1768300645
        0x000018d4:    6873696e    nish    DCD    1752394094
        0x000018d8:    2e2e6465    ed..    DCD    774792293
        0x000018dc:    4f50282e    .(PO    DCD    1330653230
        0x000018e0:    0a0d2952    R)..    DCD    168634706
        0x000018e4:    6d305b1b    .[0m    DCD    1831885595
        0x000018e8:    00000000    ....    DCD    0
        0x000018ec:    3b315b1b    .[1;    DCD    993090331
        0x000018f0:    5b6d3633    36m[    DCD    1533883955
        0x000018f4:    4f52444c    LDRO    DCD    1330791500
        0x000018f8:    6e455d4d    M]En    DCD    1850039629
        0x000018fc:    20726574    ter     DCD    544367988
        0x00001900:    544f4f42    BOOT    DCD    1414483778
        0x00001904:    44414f4c    LOAD    DCD    1145130828
        0x00001908:    66205245    ER f    DCD    1713394245
        0x0000190c:    206d6f72    rom     DCD    544042866
        0x00001910:    20555043    CPU     DCD    542462019
        0x00001914:    65736572    rese    DCD    1702061426
        0x00001918:    1b0a0d74    t...    DCD    453643636
        0x0000191c:    006d305b    [0m.    DCD    7155803
        0x00001920:    3b315b1b    .[1;    DCD    993090331
        0x00001924:    5b6d3633    36m[    DCD    1533883955
        0x00001928:    4f52444c    LDRO    DCD    1330791500
        0x0000192c:    6e455d4d    M]En    DCD    1850039629
        0x00001930:    20726574    ter     DCD    544367988
        0x00001934:    544f4f42    BOOT    DCD    1414483778
        0x00001938:    44414f4c    LOAD    DCD    1145130828
        0x0000193c:    66205245    ER f    DCD    1713394245
        0x00001940:    206d6f72    rom     DCD    544042866
        0x00001944:    4c505041    APPL    DCD    1280331841
        0x00001948:    54414349    ICAT    DCD    1413563209
        0x0000194c:    284e4f49    ION(    DCD    676220745
        0x00001950:    29555043    CPU)    DCD    693456963
        0x00001954:    5b1b0a0d    ...[    DCD    1528498701
        0x00001958:    00006d30    0m..    DCD    27952
        0x0000195c:    3b315b1b    .[1;    DCD    993090331
        0x00001960:    5b6d3633    36m[    DCD    1533883955
        0x00001964:    4f52444c    LDRO    DCD    1330791500
        0x00001968:    70555d4d    M]Up    DCD    1884642637
        0x0000196c:    64617267    grad    DCD    1684107879
        0x00001970:    69662065    e fi    DCD    1768300645
        0x00001974:    6873696e    nish    DCD    1752394094
        0x00001978:    2e2e6465    ed..    DCD    774792293
        0x0000197c:    5043282e    .(CP    DCD    1346578478
        0x00001980:    0a0d2955    U)..    DCD    168634709
        0x00001984:    6d305b1b    .[0m    DCD    1831885595
        0x00001988:    00000000    ....    DCD    0
        0x0000198c:    3b315b1b    .[1;    DCD    993090331
        0x00001990:    5b6d3633    36m[    DCD    1533883955
        0x00001994:    4f52444c    LDRO    DCD    1330791500
        0x00001998:    6e455d4d    M]En    DCD    1850039629
        0x0000199c:    20726574    ter     DCD    544367988
        0x000019a0:    544f4f42    BOOT    DCD    1414483778
        0x000019a4:    44414f4c    LOAD    DCD    1145130828
        0x000019a8:    66205245    ER f    DCD    1713394245
        0x000019ac:    206d6f72    rom     DCD    544042866
        0x000019b0:    5345526e    nRES    DCD    1397052014
        0x000019b4:    70205445    ET p    DCD    1881166917
        0x000019b8:    0a0d6e69    in..    DCD    168652393
        0x000019bc:    6d305b1b    .[0m    DCD    1831885595
        0x000019c0:    00000000    ....    DCD    0
        0x000019c4:    3b315b1b    .[1;    DCD    993090331
        0x000019c8:    5b6d3633    36m[    DCD    1533883955
        0x000019cc:    4f52444c    LDRO    DCD    1330791500
        0x000019d0:    6e455d4d    M]En    DCD    1850039629
        0x000019d4:    20726574    ter     DCD    544367988
        0x000019d8:    544f4f42    BOOT    DCD    1414483778
        0x000019dc:    44414f4c    LOAD    DCD    1145130828
        0x000019e0:    66205245    ER f    DCD    1713394245
        0x000019e4:    206d6f72    rom     DCD    544042866
        0x000019e8:    61686e75    unha    DCD    1634233973
        0x000019ec:    656c646e    ndle    DCD    1701602414
        0x000019f0:    73657220     res    DCD    1936028192
        0x000019f4:    73207465    et s    DCD    1931506789
        0x000019f8:    6372756f    ourc    DCD    1668445551
        0x000019fc:    1b0a0d65    e...    DCD    453643621
        0x00001a00:    006d305b    [0m.    DCD    7155803
    $t
    i.fputc
    fputc
        0x00001a04:    b500        ..      PUSH     {lr}
        0x00001a06:    4603        .F      MOV      r3,r0
        0x00001a08:    f7fff998    ....    BL       SendChar_ToUART ; 0xd3c
        0x00001a0c:    4618        .F      MOV      r0,r3
        0x00001a0e:    bd00        ..      POP      {pc}
    i.main
    main
        0x00001a10:    b51f        ..      PUSH     {r0-r4,lr}
        0x00001a12:    2400        .$      MOVS     r4,#0
        0x00001a14:    4625        %F      MOV      r5,r4
        0x00001a16:    9400        ..      STR      r4,[sp,#0]
        0x00001a18:    9401        ..      STR      r4,[sp,#4]
        0x00001a1a:    9402        ..      STR      r4,[sp,#8]
        0x00001a1c:    9403        ..      STR      r4,[sp,#0xc]
        0x00001a1e:    f7fff96d    ..m.    BL       SYS_UnlockReg ; 0xcfc
        0x00001a22:    f7fff8fb    ....    BL       SYS_Init ; 0xc1c
        0x00001a26:    f7fefe15    ....    BL       DEBUG_UART_Init ; 0x654
        0x00001a2a:    f7fffb0b    ....    BL       UART_Init ; 0x1044
        0x00001a2e:    f7fffa01    ....    BL       TIMER1_Init ; 0xe34
        0x00001a32:    4835        5H      LDR      r0,[pc,#212] ; [0x1b08] = 0x50000200
        0x00001a34:    6841        Ah      LDR      r1,[r0,#4]
        0x00001a36:    2204        ."      MOVS     r2,#4
        0x00001a38:    4311        .C      ORRS     r1,r1,r2
        0x00001a3a:    6041        A`      STR      r1,[r0,#4]
        0x00001a3c:    f7fefeb6    ....    BL       FMC_Open ; 0x7ac
        0x00001a40:    4832        2H      LDR      r0,[pc,#200] ; [0x1b0c] = 0x5000c000
        0x00001a42:    6801        .h      LDR      r1,[r0,#0]
        0x00001a44:    2208        ."      MOVS     r2,#8
        0x00001a46:    4311        .C      ORRS     r1,r1,r2
        0x00001a48:    6001        .`      STR      r1,[r0,#0]
        0x00001a4a:    200d        .       MOVS     r0,#0xd
        0x00001a4c:    4930        0I      LDR      r1,[pc,#192] ; [0x1b10] = 0x20000068
        0x00001a4e:    0300        ..      LSLS     r0,r0,#12
        0x00001a50:    6008        .`      STR      r0,[r1,#0]
        0x00001a52:    4930        0I      LDR      r1,[pc,#192] ; [0x1b14] = 0x20000070
        0x00001a54:    4830        0H      LDR      r0,[pc,#192] ; [0x1b18] = 0x2000006c
        0x00001a56:    f7fefef9    ....    BL       GetDataFlashInfo ; 0x84c
        0x00001a5a:    f7fffe99    ....    BL       check_reset_source ; 0x1790
        0x00001a5e:    2800        .(      CMP      r0,#0
        0x00001a60:    d018        ..      BEQ      0x1a94 ; main + 132
        0x00001a62:    a02e        ..      ADR      r0,{pc}+0xba ; 0x1b1c
        0x00001a64:    f7fffbcc    ....    BL       __0printf$8 ; 0x1200
        0x00001a68:    a03b        ;.      ADR      r0,{pc}+0xf0 ; 0x1b58
        0x00001a6a:    f7fffbc9    ....    BL       __0printf$8 ; 0x1200
        0x00001a6e:    4946        FI      LDR      r1,[pc,#280] ; [0x1b88] = 0x40010020
        0x00001a70:    6808        .h      LDR      r0,[r1,#0]
        0x00001a72:    064a        J.      LSLS     r2,r1,#25
        0x00001a74:    4310        .C      ORRS     r0,r0,r2
        0x00001a76:    6008        .`      STR      r0,[r1,#0]
        0x00001a78:    f7fff940    ..@.    BL       SYS_UnlockReg ; 0xcfc
        0x00001a7c:    f7fefe96    ....    BL       FMC_Open ; 0x7ac
        0x00001a80:    4e42        BN      LDR      r6,[pc,#264] ; [0x1b8c] = 0x200006b8
        0x00001a82:    4c43        CL      LDR      r4,[pc,#268] ; [0x1b90] = 0x20000075
        0x00001a84:    4f43        CO      LDR      r7,[pc,#268] ; [0x1b94] = 0x20000074
        0x00001a86:    7820         x      LDRB     r0,[r4,#0]
        0x00001a88:    2804        .(      CMP      r0,#4
        0x00001a8a:    d221        !.      BCS      0x1ad0 ; main + 192
        0x00001a8c:    7838        8x      LDRB     r0,[r7,#0]
        0x00001a8e:    2801        .(      CMP      r0,#1
        0x00001a90:    d01e        ..      BEQ      0x1ad0 ; main + 192
        0x00001a92:    e022        ".      B        0x1ada ; main + 202
        0x00001a94:    f000f94e    ..N.    BL       verify_application_chksum ; 0x1d34
        0x00001a98:    2800        .(      CMP      r0,#0
        0x00001a9a:    d015        ..      BEQ      0x1ac8 ; main + 184
        0x00001a9c:    2019        .       MOVS     r0,#0x19
        0x00001a9e:    0240        @.      LSLS     r0,r0,#9
        0x00001aa0:    4669        iF      MOV      r1,sp
        0x00001aa2:    7802        .x      LDRB     r2,[r0,#0]
        0x00001aa4:    550a        .U      STRB     r2,[r1,r4]
        0x00001aa6:    1c64        d.      ADDS     r4,r4,#1
        0x00001aa8:    b2e4        ..      UXTB     r4,r4
        0x00001aaa:    1c40        @.      ADDS     r0,r0,#1
        0x00001aac:    2c10        .,      CMP      r4,#0x10
        0x00001aae:    d3f8        ..      BCC      0x1aa2 ; main + 146
        0x00001ab0:    a039        9.      ADR      r0,{pc}+0xe8 ; 0x1b98
        0x00001ab2:    f7fffba5    ....    BL       __0printf$8 ; 0x1200
        0x00001ab6:    4844        DH      LDR      r0,[pc,#272] ; [0x1bc8] = 0x40150000
        0x00001ab8:    6981        .i      LDR      r1,[r0,#0x18]
        0x00001aba:    00c9        ..      LSLS     r1,r1,#3
        0x00001abc:    d5fc        ..      BPL      0x1ab8 ; main + 168
        0x00001abe:    2101        .!      MOVS     r1,#1
        0x00001ac0:    4608        .F      MOV      r0,r1
        0x00001ac2:    f7feff15    ....    BL       IAPSystemReboot_RST ; 0x8f0
        0x00001ac6:    e7fe        ..      B        0x1ac6 ; main + 182
        0x00001ac8:    a040        @.      ADR      r0,{pc}+0x104 ; 0x1bcc
        0x00001aca:    f7fffb99    ....    BL       __0printf$8 ; 0x1200
        0x00001ace:    e7d3        ..      B        0x1a78 ; main + 104
        0x00001ad0:    6830        0h      LDR      r0,[r6,#0]
        0x00001ad2:    28ae        .(      CMP      r0,#0xae
        0x00001ad4:    d00d        ..      BEQ      0x1af2 ; main + 226
        0x00001ad6:    703d        =p      STRB     r5,[r7,#0]
        0x00001ad8:    7025        %p      STRB     r5,[r4,#0]
        0x00001ada:    484b        KH      LDR      r0,[pc,#300] ; [0x1c08] = 0x20000030
        0x00001adc:    68c0        .h      LDR      r0,[r0,#0xc]
        0x00001ade:    2805        .(      CMP      r0,#5
        0x00001ae0:    d9d1        ..      BLS      0x1a86 ; main + 118
        0x00001ae2:    a04a        J.      ADR      r0,{pc}+0x12a ; 0x1c0c
        0x00001ae4:    f7fffb8c    ....    BL       __0printf$8 ; 0x1200
        0x00001ae8:    2102        .!      MOVS     r1,#2
        0x00001aea:    2000        .       MOVS     r0,#0
        0x00001aec:    f7feff00    ....    BL       IAPSystemReboot_RST ; 0x8f0
        0x00001af0:    e7c9        ..      B        0x1a86 ; main + 118
        0x00001af2:    7838        8x      LDRB     r0,[r7,#0]
        0x00001af4:    2801        .(      CMP      r0,#1
        0x00001af6:    d1fc        ..      BNE      0x1af2 ; main + 226
        0x00001af8:    703d        =p      STRB     r5,[r7,#0]
        0x00001afa:    2140        @!      MOVS     r1,#0x40
        0x00001afc:    4823        #H      LDR      r0,[pc,#140] ; [0x1b8c] = 0x200006b8
        0x00001afe:    f7feff41    ..A.    BL       ParseCmd ; 0x984
        0x00001b02:    f7fff863    ..c.    BL       PutString ; 0xbcc
        0x00001b06:    e7f4        ..      B        0x1af2 ; main + 226
    $d
        0x00001b08:    50000200    ...P    DCD    1342177792
        0x00001b0c:    5000c000    ...P    DCD    1342226432
        0x00001b10:    20000068    h..     DCD    536871016
        0x00001b14:    20000070    p..     DCD    536871024
        0x00001b18:    2000006c    l..     DCD    536871020
        0x00001b1c:    3b315b1b    .[1;    DCD    993090331
        0x00001b20:    5b6d3633    36m[    DCD    1533883955
        0x00001b24:    4f52444c    LDRO    DCD    1330791500
        0x00001b28:    74535d4d    M]St    DCD    1951620429
        0x00001b2c:    69207961    ay i    DCD    1763735905
        0x00001b30:    4f42206e    n BO    DCD    1329733742
        0x00001b34:    4f4c544f    OTLO    DCD    1330402383
        0x00001b38:    52454441    ADER    DCD    1380271169
        0x00001b3c:    72662820     (fr    DCD    1919297568
        0x00001b40:    41206d6f    om A    DCD    1092644207
        0x00001b44:    494c5050    PPLI    DCD    1229738064
        0x00001b48:    49544143    CATI    DCD    1230258499
        0x00001b4c:    0d294e4f    ON).    DCD    220810831
        0x00001b50:    305b1b0a    ..[0    DCD    811277066
        0x00001b54:    0000006d    m...    DCD    109
        0x00001b58:    3b315b1b    .[1;    DCD    993090331
        0x00001b5c:    5b6d3633    36m[    DCD    1533883955
        0x00001b60:    4f52444c    LDRO    DCD    1330791500
        0x00001b64:    69545d4d    M]Ti    DCD    1767136589
        0x00001b68:    6f2d656d    me-o    DCD    1865246061
        0x00001b6c:    63207475    ut c    DCD    1663071349
        0x00001b70:    746e756f    ount    DCD    1953396079
        0x00001b74:    73207265    er s    DCD    1931506277
        0x00001b78:    74726174    tart    DCD    1953653108
        0x00001b7c:    2e2e2e2e    ....    DCD    774778414
        0x00001b80:    5b1b0a0d    ...[    DCD    1528498701
        0x00001b84:    00006d30    0m..    DCD    27952
        0x00001b88:    40010020     ..@    DCD    1073807392
        0x00001b8c:    200006b8    ...     DCD    536872632
        0x00001b90:    20000075    u..     DCD    536871029
        0x00001b94:    20000074    t..     DCD    536871028
        0x00001b98:    3b315b1b    .[1;    DCD    993090331
        0x00001b9c:    5b6d3633    36m[    DCD    1533883955
        0x00001ba0:    4f52444c    LDRO    DCD    1330791500
        0x00001ba4:    754a5d4d    M]Ju    DCD    1967807821
        0x00001ba8:    7420706d    mp t    DCD    1948282989
        0x00001bac:    413c206f    o <A    DCD    1094459503
        0x00001bb0:    494c5050    PPLI    DCD    1229738064
        0x00001bb4:    49544143    CATI    DCD    1230258499
        0x00001bb8:    2c3e4e4f    ON>,    DCD    742280783
        0x00001bbc:    0a0d7325    %s..    DCD    168653605
        0x00001bc0:    6d305b1b    .[0m    DCD    1831885595
        0x00001bc4:    00000000    ....    DCD    0
        0x00001bc8:    40150000    ...@    DCD    1075118080
        0x00001bcc:    3b315b1b    .[1;    DCD    993090331
        0x00001bd0:    5b6d3633    36m[    DCD    1533883955
        0x00001bd4:    4f52444c    LDRO    DCD    1330791500
        0x00001bd8:    74535d4d    M]St    DCD    1951620429
        0x00001bdc:    69207961    ay i    DCD    1763735905
        0x00001be0:    4f42206e    n BO    DCD    1329733742
        0x00001be4:    4f4c544f    OTLO    DCD    1330402383
        0x00001be8:    52454441    ADER    DCD    1380271169
        0x00001bec:    68632820     (ch    DCD    1751328800
        0x00001bf0:    736b6365    ecks    DCD    1936417637
        0x00001bf4:    69206d75    um i    DCD    1763732853
        0x00001bf8:    6961766e    nvai    DCD    1767994990
        0x00001bfc:    0d29646c    ld).    DCD    220816492
        0x00001c00:    305b1b0a    ..[0    DCD    811277066
        0x00001c04:    0000006d    m...    DCD    109
        0x00001c08:    20000030    0..     DCD    536870960
        0x00001c0c:    3b315b1b    .[1;    DCD    993090331
        0x00001c10:    5b6d3633    36m[    DCD    1533883955
        0x00001c14:    4f52444c    LDRO    DCD    1330791500
        0x00001c18:    69545d4d    M]Ti    DCD    1767136589
        0x00001c1c:    6f2d656d    me-o    DCD    1865246061
        0x00001c20:    202c7475    ut,     DCD    539784309
        0x00001c24:    66726570    perf    DCD    1718773104
        0x00001c28:    206d726f    orm     DCD    544043631
        0x00001c2c:    45534552    RESE    DCD    1163085138
        0x00001c30:    1b0a0d54    T...    DCD    453643604
        0x00001c34:    006d305b    [0m.    DCD    7155803
    $t
    i.read_magic_tag
    read_magic_tag
        0x00001c38:    b510        ..      PUSH     {r4,lr}
        0x00001c3a:    4804        .H      LDR      r0,[pc,#16] ; [0x1c4c] = 0x20001ffc
        0x00001c3c:    7804        .x      LDRB     r4,[r0,#0]
        0x00001c3e:    a004        ..      ADR      r0,{pc}+0x12 ; 0x1c50
        0x00001c40:    4621        !F      MOV      r1,r4
        0x00001c42:    f7fffadd    ....    BL       __0printf$8 ; 0x1200
        0x00001c46:    4620         F      MOV      r0,r4
        0x00001c48:    bd10        ..      POP      {r4,pc}
    $d
        0x00001c4a:    0000        ..      DCW    0
        0x00001c4c:    20001ffc    ...     DCD    536879100
        0x00001c50:    3b315b1b    .[1;    DCD    993090331
        0x00001c54:    5b6d3633    36m[    DCD    1533883955
        0x00001c58:    4f52444c    LDRO    DCD    1330791500
        0x00001c5c:    65525d4d    M]Re    DCD    1699896653
        0x00001c60:    4d206461    ad M    DCD    1293968481
        0x00001c64:    63696761    agic    DCD    1667852129
        0x00001c68:    20676154    Tag     DCD    543646036
        0x00001c6c:    2578303c    <0x%    DCD    628633660
        0x00001c70:    3e583230    02X>    DCD    1045967408
        0x00001c74:    5b1b0a0d    ...[    DCD    1528498701
        0x00001c78:    00006d30    0m..    DCD    27952
    $t
    i.stackDump
    stackDump
        0x00001c7c:    b510        ..      PUSH     {r4,lr}
        0x00001c7e:    4604        .F      MOV      r4,r0
        0x00001c80:    6801        .h      LDR      r1,[r0,#0]
        0x00001c82:    a010        ..      ADR      r0,{pc}+0x42 ; 0x1cc4
        0x00001c84:    f7fffabc    ....    BL       __0printf$8 ; 0x1200
        0x00001c88:    a011        ..      ADR      r0,{pc}+0x48 ; 0x1cd0
        0x00001c8a:    6861        ah      LDR      r1,[r4,#4]
        0x00001c8c:    f7fffab8    ....    BL       __0printf$8 ; 0x1200
        0x00001c90:    a012        ..      ADR      r0,{pc}+0x4c ; 0x1cdc
        0x00001c92:    68a1        .h      LDR      r1,[r4,#8]
        0x00001c94:    f7fffab4    ....    BL       __0printf$8 ; 0x1200
        0x00001c98:    a013        ..      ADR      r0,{pc}+0x50 ; 0x1ce8
        0x00001c9a:    68e1        .h      LDR      r1,[r4,#0xc]
        0x00001c9c:    f7fffab0    ....    BL       __0printf$8 ; 0x1200
        0x00001ca0:    a014        ..      ADR      r0,{pc}+0x54 ; 0x1cf4
        0x00001ca2:    6921        !i      LDR      r1,[r4,#0x10]
        0x00001ca4:    f7fffaac    ....    BL       __0printf$8 ; 0x1200
        0x00001ca8:    a015        ..      ADR      r0,{pc}+0x58 ; 0x1d00
        0x00001caa:    6961        ai      LDR      r1,[r4,#0x14]
        0x00001cac:    f7fffaa8    ....    BL       __0printf$8 ; 0x1200
        0x00001cb0:    a016        ..      ADR      r0,{pc}+0x5c ; 0x1d0c
        0x00001cb2:    69a1        .i      LDR      r1,[r4,#0x18]
        0x00001cb4:    f7fffaa4    ....    BL       __0printf$8 ; 0x1200
        0x00001cb8:    a017        ..      ADR      r0,{pc}+0x60 ; 0x1d18
        0x00001cba:    69e1        .i      LDR      r1,[r4,#0x1c]
        0x00001cbc:    f7fffaa0    ....    BL       __0printf$8 ; 0x1200
        0x00001cc0:    bd10        ..      POP      {r4,pc}
    $d
        0x00001cc2:    0000        ..      DCW    0
        0x00001cc4:    20203072    r0      DCD    538980466
        0x00001cc8:    7830203d    = 0x    DCD    2016419901
        0x00001ccc:    000a7825    %x..    DCD    686117
        0x00001cd0:    20203172    r1      DCD    538980722
        0x00001cd4:    7830203d    = 0x    DCD    2016419901
        0x00001cd8:    000a7825    %x..    DCD    686117
        0x00001cdc:    20203272    r2      DCD    538980978
        0x00001ce0:    7830203d    = 0x    DCD    2016419901
        0x00001ce4:    000a7825    %x..    DCD    686117
        0x00001ce8:    20203372    r3      DCD    538981234
        0x00001cec:    7830203d    = 0x    DCD    2016419901
        0x00001cf0:    000a7825    %x..    DCD    686117
        0x00001cf4:    20323172    r12     DCD    540160370
        0x00001cf8:    7830203d    = 0x    DCD    2016419901
        0x00001cfc:    000a7825    %x..    DCD    686117
        0x00001d00:    2020726c    lr      DCD    538997356
        0x00001d04:    7830203d    = 0x    DCD    2016419901
        0x00001d08:    000a7825    %x..    DCD    686117
        0x00001d0c:    20206370    pc      DCD    538993520
        0x00001d10:    7830203d    = 0x    DCD    2016419901
        0x00001d14:    000a7825    %x..    DCD    686117
        0x00001d18:    20727370    psr     DCD    544371568
        0x00001d1c:    7830203d    = 0x    DCD    2016419901
        0x00001d20:    000a7825    %x..    DCD    686117
    $t
    i.systick_counter
    systick_counter
        0x00001d24:    4802        .H      LDR      r0,[pc,#8] ; [0x1d30] = 0x20000030
        0x00001d26:    6881        .h      LDR      r1,[r0,#8]
        0x00001d28:    1c49        I.      ADDS     r1,r1,#1
        0x00001d2a:    6081        .`      STR      r1,[r0,#8]
        0x00001d2c:    4770        pG      BX       lr
    $d
        0x00001d2e:    0000        ..      DCW    0
        0x00001d30:    20000030    0..     DCD    536870960
    $t
    i.verify_application_chksum
    verify_application_chksum
        0x00001d34:    b570        p.      PUSH     {r4-r6,lr}
        0x00001d36:    a012        ..      ADR      r0,{pc}+0x4a ; 0x1d80
        0x00001d38:    f7fffa62    ..b.    BL       __0printf$8 ; 0x1200
        0x00001d3c:    4c19        .L      LDR      r4,[pc,#100] ; [0x1da4] = 0x20000068
        0x00001d3e:    2003        .       MOVS     r0,#3
        0x00001d40:    6821        !h      LDR      r1,[r4,#0]
        0x00001d42:    0300        ..      LSLS     r0,r0,#12
        0x00001d44:    1f09        ..      SUBS     r1,r1,#4
        0x00001d46:    f7fffcb5    ....    BL       caculate_crc32_checksum ; 0x16b4
        0x00001d4a:    4605        .F      MOV      r5,r0
        0x00001d4c:    4601        .F      MOV      r1,r0
        0x00001d4e:    a016        ..      ADR      r0,{pc}+0x5a ; 0x1da8
        0x00001d50:    f7fffa56    ..V.    BL       __0printf$8 ; 0x1200
        0x00001d54:    491f        .I      LDR      r1,[pc,#124] ; [0x1dd4] = 0x2ffc
        0x00001d56:    6820         h      LDR      r0,[r4,#0]
        0x00001d58:    1840        @.      ADDS     r0,r0,r1
        0x00001d5a:    f7fefd2f    ../.    BL       FMC_Read ; 0x7bc
        0x00001d5e:    4604        .F      MOV      r4,r0
        0x00001d60:    4601        .F      MOV      r1,r0
        0x00001d62:    a01d        ..      ADR      r0,{pc}+0x76 ; 0x1dd8
        0x00001d64:    f7fffa4c    ..L.    BL       __0printf$8 ; 0x1200
        0x00001d68:    42a5        .B      CMP      r5,r4
        0x00001d6a:    d104        ..      BNE      0x1d76 ; verify_application_chksum + 66
        0x00001d6c:    a025        %.      ADR      r0,{pc}+0x98 ; 0x1e04
        0x00001d6e:    f7fffa47    ..G.    BL       __0printf$8 ; 0x1200
        0x00001d72:    2001        .       MOVS     r0,#1
        0x00001d74:    bd70        p.      POP      {r4-r6,pc}
        0x00001d76:    a02e        ..      ADR      r0,{pc}+0xba ; 0x1e30
        0x00001d78:    f7fffa42    ..B.    BL       __0printf$8 ; 0x1200
        0x00001d7c:    2000        .       MOVS     r0,#0
        0x00001d7e:    bd70        p.      POP      {r4-r6,pc}
    $d
        0x00001d80:    3b315b1b    .[1;    DCD    993090331
        0x00001d84:    5b6d3633    36m[    DCD    1533883955
        0x00001d88:    4f52444c    LDRO    DCD    1330791500
        0x00001d8c:    65565d4d    M]Ve    DCD    1700158797
        0x00001d90:    79666972    rify    DCD    2036754802
        0x00001d94:    65684320     Che    DCD    1701331744
        0x00001d98:    75736b63    cksu    DCD    1970498403
        0x00001d9c:    1b0a0d6d    m...    DCD    453643629
        0x00001da0:    006d305b    [0m.    DCD    7155803
        0x00001da4:    20000068    h..     DCD    536871016
        0x00001da8:    3b315b1b    .[1;    DCD    993090331
        0x00001dac:    5b6d3633    36m[    DCD    1533883955
        0x00001db0:    4f52444c    LDRO    DCD    1330791500
        0x00001db4:    61435d4d    M]Ca    DCD    1631804749
        0x00001db8:    616c7563    cula    DCD    1634497891
        0x00001dbc:    20646574    ted     DCD    543450484
        0x00001dc0:    2e2e2e2e    ....    DCD    774778414
        0x00001dc4:    78303c2e    .<0x    DCD    2016427054
        0x00001dc8:    58383025    %08X    DCD    1480077349
        0x00001dcc:    1b0a0d3e    >...    DCD    453643582
        0x00001dd0:    006d305b    [0m.    DCD    7155803
        0x00001dd4:    00002ffc    ./..    DCD    12284
        0x00001dd8:    3b315b1b    .[1;    DCD    993090331
        0x00001ddc:    5b6d3633    36m[    DCD    1533883955
        0x00001de0:    4f52444c    LDRO    DCD    1330791500
        0x00001de4:    6e495d4d    M]In    DCD    1850301773
        0x00001de8:    52504120     APR    DCD    1380991264
        0x00001dec:    2e204d4f    OM .    DCD    773868879
        0x00001df0:    2e2e2e2e    ....    DCD    774778414
        0x00001df4:    78303c2e    .<0x    DCD    2016427054
        0x00001df8:    58383025    %08X    DCD    1480077349
        0x00001dfc:    1b0a0d3e    >...    DCD    453643582
        0x00001e00:    006d305b    [0m.    DCD    7155803
        0x00001e04:    3b315b1b    .[1;    DCD    993090331
        0x00001e08:    5b6d3633    36m[    DCD    1533883955
        0x00001e0c:    4f52444c    LDRO    DCD    1330791500
        0x00001e10:    65565d4d    M]Ve    DCD    1700158797
        0x00001e14:    79666972    rify    DCD    2036754802
        0x00001e18:    2e2e2e20     ...    DCD    774778400
        0x00001e1c:    2e2e2e2e    ....    DCD    774778414
        0x00001e20:    41503c2e    .<PA    DCD    1095777326
        0x00001e24:    0d3e5353    SS>.    DCD    222188371
        0x00001e28:    305b1b0a    ..[0    DCD    811277066
        0x00001e2c:    0000006d    m...    DCD    109
        0x00001e30:    3b315b1b    .[1;    DCD    993090331
        0x00001e34:    5b6d3633    36m[    DCD    1533883955
        0x00001e38:    4f52444c    LDRO    DCD    1330791500
        0x00001e3c:    65565d4d    M]Ve    DCD    1700158797
        0x00001e40:    79666972    rify    DCD    2036754802
        0x00001e44:    2e2e2e20     ...    DCD    774778400
        0x00001e48:    2e2e2e2e    ....    DCD    774778414
        0x00001e4c:    41463c2e    .<FA    DCD    1095121966
        0x00001e50:    0d3e4c49    IL>.    DCD    222186569
        0x00001e54:    305b1b0a    ..[0    DCD    811277066
        0x00001e58:    0000006d    m...    DCD    109
    $t
    i.write_magic_tag
    write_magic_tag
        0x00001e5c:    b510        ..      PUSH     {r4,lr}
        0x00001e5e:    4903        .I      LDR      r1,[pc,#12] ; [0x1e6c] = 0x20001ffc
        0x00001e60:    6008        .`      STR      r0,[r1,#0]
        0x00001e62:    4601        .F      MOV      r1,r0
        0x00001e64:    a002        ..      ADR      r0,{pc}+0xc ; 0x1e70
        0x00001e66:    f7fff9cb    ....    BL       __0printf$8 ; 0x1200
        0x00001e6a:    bd10        ..      POP      {r4,pc}
    $d
        0x00001e6c:    20001ffc    ...     DCD    536879100
        0x00001e70:    3b315b1b    .[1;    DCD    993090331
        0x00001e74:    5b6d3633    36m[    DCD    1533883955
        0x00001e78:    4f52444c    LDRO    DCD    1330791500
        0x00001e7c:    72575d4d    M]Wr    DCD    1918328141
        0x00001e80:    20657469    ite     DCD    543519849
        0x00001e84:    6967614d    Magi    DCD    1768382797
        0x00001e88:    67615463    cTag    DCD    1734431843
        0x00001e8c:    78303c20     <0x    DCD    2016427040
        0x00001e90:    58323025    %02X    DCD    1479684133
        0x00001e94:    1b0a0d3e    >...    DCD    453643582
        0x00001e98:    006d305b    [0m.    DCD    7155803
    $d.realdata
    .constdata
        0x00001e9c:    00000000    ....    DCD    0
        0x00001ea0:    00000004    ....    DCD    4
        0x00001ea4:    0000000c    ....    DCD    12
        0x00001ea8:    00000024    $...    DCD    36
        0x00001eac:    00000000    ....    DCD    0
        0x00001eb0:    00000004    ....    DCD    4
        0x00001eb4:    0000002c    ,...    DCD    44
        0x00001eb8:    00000000    ....    DCD    0
        0x00001ebc:    00000000    ....    DCD    0
        0x00001ec0:    00000004    ....    DCD    4
        0x00001ec4:    0000002c    ,...    DCD    44
        0x00001ec8:    00000000    ....    DCD    0
    .constdata
        0x00001ecc:    00b71b00    ....    DCD    12000000
        0x00001ed0:    00000000    ....    DCD    0
        0x00001ed4:    00000000    ....    DCD    0
        0x00001ed8:    01518000    ..Q.    DCD    22118400
        0x00001edc:    00b71b00    ....    DCD    12000000
        0x00001ee0:    00000000    ....    DCD    0
        0x00001ee4:    00000000    ....    DCD    0
        0x00001ee8:    01518000    ..Q.    DCD    22118400
        0x00001eec:    00b71b00    ....    DCD    12000000
        0x00001ef0:    00000000    ....    DCD    0
        0x00001ef4:    00000000    ....    DCD    0
        0x00001ef8:    01518000    ..Q.    DCD    22118400
    .constdata
        0x00001efc:    00b71b00    ....    DCD    12000000
        0x00001f00:    00000000    ....    DCD    0
        0x00001f04:    00000000    ....    DCD    0
        0x00001f08:    00000000    ....    DCD    0
        0x00001f0c:    00000000    ....    DCD    0
        0x00001f10:    00002710    .'..    DCD    10000
        0x00001f14:    00000000    ....    DCD    0
        0x00001f18:    01518000    ..Q.    DCD    22118400
    .constdata
    __FUNCTION__
        0x00001f1c:    706d6f63    comp    DCD    1886220131
        0x00001f20:    5f657261    are_    DCD    1600483937
        0x00001f24:    66667562    buff    DCD    1717990754
        0x00001f28:    7265        er      DCW    29285
        0x00001f2a:    00          .       DCB    0
    __FUNCTION__
        0x00001f2b:    53          S       DCB    83
        0x00001f2c:    69547379    ysTi    DCD    1767142265
        0x00001f30:    485f6b63    ck_H    DCD    1214212963
        0x00001f34:    6c646e61    andl    DCD    1818521185
        0x00001f38:    00007265    er..    DCD    29285
    Region$$Table$$Base
        0x00001f3c:    00001f5c    \...    DCD    8028
        0x00001f40:    20000000    ...     DCD    536870912
        0x00001f44:    00000078    x...    DCD    120
        0x00001f48:    00001220     ...    DCD    4640
        0x00001f4c:    00001fd4    ....    DCD    8148
        0x00001f50:    20000078    x..     DCD    536871032
        0x00001f54:    00000a80    ....    DCD    2688
        0x00001f58:    00001230    0...    DCD    4656
    Region$$Table$$Limit

** Section #2 'SRAM' (SHT_PROGBITS) [SHF_ALLOC + SHF_WRITE]
    Size   : 120 bytes (alignment 4)
    Address: 0x20000000


** Section #3 'SRAM' (SHT_NOBITS) [SHF_ALLOC + SHF_WRITE]
    Size   : 2688 bytes (alignment 8)
    Address: 0x20000078


** Section #4 'ER$$.ARM.__AT_0x20001FFC' (SHT_NOBITS) [SHF_ALLOC + SHF_WRITE]
    Size   : 4 bytes (alignment 4)
    Address: 0x20001ffc


** Section #5 '.debug_abbrev' (SHT_PROGBITS)
    Size   : 1476 bytes


** Section #6 '.debug_frame' (SHT_PROGBITS)
    Size   : 2512 bytes


** Section #7 '.debug_info' (SHT_PROGBITS)
    Size   : 55852 bytes


** Section #8 '.debug_line' (SHT_PROGBITS)
    Size   : 14152 bytes


** Section #9 '.debug_loc' (SHT_PROGBITS)
    Size   : 5692 bytes


** Section #10 '.debug_macinfo' (SHT_PROGBITS)
    Size   : 437832 bytes


** Section #11 '.debug_pubnames' (SHT_PROGBITS)
    Size   : 2660 bytes


** Section #12 '.symtab' (SHT_SYMTAB)
    Size   : 8192 bytes (alignment 4)
    String table #13 '.strtab'
    Last local symbol no. 322


** Section #13 '.strtab' (SHT_STRTAB)
    Size   : 6112 bytes


** Section #14 '.note' (SHT_NOTE)
    Size   : 32 bytes (alignment 4)


** Section #15 '.comment' (SHT_PROGBITS)
    Size   : 14696 bytes


** Section #16 '.shstrtab' (SHT_STRTAB)
    Size   : 188 bytes


